(i__main__
Benchmark
p1
(dp2
S'tests'
p3
(dp4
S'SpecialInstanceAttribute'
p5
(iLookups
SpecialInstanceAttribute
p6
(dp7
S'operations'
p8
I120
sS'overhead_times'
p9
(lp10
F0.001742386817932129
aF0.0017417907714843751
aF0.0017415404319763184
aF0.0017416357994079589
aF0.0017411470413208007
aF0.0017417430877685546
aF0.0017408967018127442
aF0.0017415881156921387
aF0.0017409443855285645
aF0.0017417430877685546
aF0.0017416954040527343
aF0.0017478466033935547
aF0.0017434835433959961
aF0.0017417907714843751
aF0.0017431974411010742
aF0.0017416954040527343
aF0.0017411470413208007
aF0.0017421364784240723
aF0.0017411351203918458
aF0.0017416477203369141
asS'calibration_runs'
p11
I20
sS'warp'
p12
I10
sS'times'
p13
(lp14
F0.60409215688705442
aF0.60299805402755735
aF0.60491493940353391
aF0.60641912221908567
aF0.60408405065536497
aF0.60736206769943235
aF0.60529807806015012
aF0.60705307722091673
aF0.60534909963607786
aF0.60839918851852415
asS'version'
p15
F2
sS'rounds'
p16
I10000
sS'last_timing'
p17
(F0.60839918851852415
F0.61014008522033691
F0.0017408967018127442
tp18
sbsS'PythonFunctionCalls'
p19
(iCalls
PythonFunctionCalls
p20
(dp21
g8
I55
sg9
(lp22
F0.0010440349578857422
aF0.0010412812232971191
aF0.0010412216186523437
aF0.0010454773902893067
aF0.001041877269744873
aF0.0010417222976684571
aF0.0010413765907287599
aF0.0010411262512207032
aF0.0010410904884338378
aF0.0010412335395812988
aF0.0010411381721496583
aF0.0010409832000732421
aF0.0010417819023132325
aF0.0010410785675048829
aF0.0010411858558654786
aF0.0010410308837890624
aF0.0010414719581604004
aF0.0010412812232971191
aF0.0010410308837890624
aF0.0010410785675048829
asg11
I20
sg12
I10
sg13
(lp23
F0.40465707778930665
aF0.40399904251098634
aF0.40326805114746095
aF0.40262503623962403
aF0.40283508300781251
aF0.40257711410522462
aF0.40226597785949708
aF0.40259785652160646
aF0.40262694358825685
aF0.40263004302978517
asg15
F2
sg16
I6000
sg17
(F0.40263004302978517
F0.4036710262298584
F0.0010409832000732421
tp24
sbsS'CompareFloatsIntegers'
p25
(iNumbers
CompareFloatsIntegers
p26
(dp27
g8
I150
sg9
(lp28
F0.0010354995727539062
aF0.0010355472564697265
aF0.0010350942611694336
aF0.0010351419448852539
aF0.0010350465774536133
aF0.0010354042053222657
aF0.0010352492332458495
aF0.0010350465774536133
aF0.0010350465774536133
aF0.0010352492332458495
aF0.0010350465774536133
aF0.0010350465774536133
aF0.0010350465774536133
aF0.001035153865814209
aF0.0010370016098022461
aF0.0010350942611694336
aF0.0010349035263061523
aF0.0010367035865783691
aF0.0010352015495300293
aF0.0010352015495300293
asg11
I20
sg12
I10
sg13
(lp29
F0.83348114490509029
aF0.82938511371612544
aF0.83250505924224849
aF0.82961709499359126
aF0.83835322856903072
aF0.83845288753509517
aF0.83308513164520259
aF0.83304221630096431
aF0.83289606571197505
aF0.83733422756195064
asg15
F2
sg16
I6000
sg17
(F0.83733422756195064
F0.83836913108825684
F0.0010349035263061523
tp30
sbsS'PythonMethodCalls'
p31
(iCalls
PythonMethodCalls
p32
(dp33
g8
I75
sg9
(lp34
F0.00053483247756958008
aF0.00053364038467407227
aF0.00053334236145019531
aF0.00053334236145019531
aF0.00053337812423706057
aF0.00053323507308959965
aF0.00053333044052124019
aF0.00053337812423706057
aF0.00053403377532958987
aF0.00053353309631347661
aF0.00053333044052124019
aF0.00053343772888183596
aF0.00053322315216064453
aF0.00053313970565795901
aF0.00053328275680541992
aF0.00053313970565795901
aF0.00053328275680541992
aF0.00053323507308959965
aF0.00053322315216064453
aF0.00053323507308959965
asg11
I20
sg12
I10
sg13
(lp35
F0.58531972169876101
aF0.59827204942703249
aF0.58186789751052859
aF0.58176871538162234
aF0.58037182092666628
aF0.58607670068740847
aF0.58065172433853152
aF0.58102079629898074
aF0.58108803033828738
aF0.58001180887222292
asg15
F2
sg16
I3000
sg17
(F0.58001180887222292
F0.58054494857788086
F0.00053313970565795901
tp36
sbsS'NestedListComprehensions'
p37
(iLists
NestedListComprehensions
p38
(dp39
g8
I6
sg9
(lp40
F0.00034787654876708982
aF0.00034712553024291993
aF0.00034767389297485352
aF0.00034762620925903319
aF0.00034698247909545896
aF0.0003477931022644043
aF0.00034787654876708982
aF0.0003468751907348633
aF0.0003475308418273926
aF0.0003475308418273926
aF0.00034748315811157228
aF0.00034693479537963869
aF0.00034773349761962891
aF0.00034742355346679689
aF0.00034698247909545896
aF0.00034773349761962891
aF0.00034747123718261721
aF0.00034738779067993163
aF0.00034708976745605468
aF0.00034773349761962891
asg11
I20
sg12
I10
sg13
(lp41
F0.52633216381073
aF0.52828123569488528
aF0.52747299671173098
aF0.52795126438140871
aF0.52862408161163332
aF0.52918698787689211
aF0.52824523448944094
aF0.52878096103668215
aF0.52676727771759035
aF0.52635910511016848
asg15
F2
sg16
I2000
sg17
(F0.52635910511016848
F0.52670598030090332
F0.0003468751907348633
tp42
sbsS'SecondSubmoduleImport'
p43
(iImports
SecondSubmoduleImport
p44
(dp45
g8
I25
sg9
(lp46
F0.00068910121917724614
aF0.00068805217742919924
aF0.00068844556808471684
aF0.00068819522857666016
aF0.00068814754486083989
aF0.00068864822387695315
aF0.00068814754486083989
aF0.00068805217742919924
aF0.00068869590759277342
aF0.00068800449371337886
aF0.00068860054016113277
aF0.00068814754486083989
aF0.00068813562393188477
aF0.00068889856338500972
aF0.00069304704666137693
aF0.00068874359130859379
aF0.0006882905960083008
aF0.00070759057998657224
aF0.00068938732147216797
aF0.00068814754486083989
asg11
I20
sg12
I10
sg13
(lp47
F0.682603907585144
aF0.6810930490493774
aF0.68079311847686763
aF0.67460591793060298
aF0.68015797138214107
aF0.6827719926834106
aF0.66936500072479244
aF0.68028695583343501
aF0.68008096218109126
aF0.6823290109634399
asg15
F2
sg16
I4000
sg17
(F0.6823290109634399
F0.68301701545715332
F0.00068800449371337886
tp48
sbsS'DictWithIntegerKeys'
p49
(iDict
DictWithIntegerKeys
p50
(dp51
g8
I60
sg9
(lp52
F0.0034632921218872071
aF0.0034627318382263184
aF0.0034630298614501953
aF0.0034625887870788573
aF0.0034685373306274415
aF0.0034691333770751954
aF0.0034632802009582518
aF0.0034626841545104979
aF0.0034625291824340819
aF0.0034626364707946778
aF0.0034683823585510256
aF0.0034627795219421388
aF0.0034627795219421388
aF0.0035709381103515626
aF0.0034655332565307617
aF0.0034627318382263184
aF0.0034625291824340819
aF0.0034631848335266112
aF0.0034626245498657225
aF0.0034696817398071288
asg11
I20
sg12
I10
sg13
(lp53
F0.40641429424285891
aF0.41199948787689211
aF0.40629460811614992
aF0.40748646259307864
aF0.41191151142120364
aF0.41190745830535891
aF0.40574767589569094
aF0.40946557521820071
aF0.40953447818756106
aF0.40931131839752199
asg15
F2
sg16
I20000
sg17
(F0.40931131839752199
F0.41277384757995605
F0.0034625291824340819
tp54
sbsS'UnicodeSlicing'
p55
(iUnicode
UnicodeSlicing
p56
(dp57
g8
I35
sg9
(lp58
F0.002577078342437744
aF0.0025741815567016601
aF0.0025864720344543459
aF0.0025760769844055177
aF0.0025741219520568847
aF0.0025740742683410646
aF0.0025735259056091308
aF0.002574431896209717
aF0.0025738835334777831
aF0.0025734305381774902
aF0.0025814890861511229
aF0.0025744915008544924
aF0.00257413387298584
aF0.0025742769241333006
aF0.0025736808776855467
aF0.0025751352310180663
aF0.0025738358497619631
aF0.002574336528778076
aF0.0025741815567016601
aF0.0025740861892700195
asg11
I20
sg12
I10
sg13
(lp59
F0.4262426495552063
aF0.39874464273452759
aF0.39736872911453247
aF0.39469462633132935
aF0.39734655618667603
aF0.39715248346328735
aF0.39538174867630005
aF0.40206247568130493
aF0.40214544534683228
aF0.39122539758682251
asg15
F2
sg16
I14000
sg17
(F0.39122539758682251
F0.393798828125
F0.0025734305381774902
tp60
sbsS'NestedForLoops'
p61
(iConstructs
NestedForLoops
p62
(dp63
g8
I50000
sg9
(lp64
F0.00010979175567626953
aF0.00010650157928466797
aF0.00010629892349243165
aF0.00010625123977661132
aF0.00010623931884765626
aF0.0001072525978088379
aF0.00010625123977661132
aF0.00010625123977661132
aF0.00010634660720825196
aF0.00010753870010375977
aF0.00010623931884765626
aF0.00010634660720825196
aF0.00010639429092407227
aF0.00010644197463989258
aF0.00010703802108764648
aF0.00010639429092407227
aF0.00010633468627929688
aF0.00010634660720825196
aF0.00010708570480346679
aF0.00010634660720825196
asg11
I20
sg12
I10
sg13
(lp65
F0.43436775207519529
aF0.43596873283386228
aF0.43416676521301267
aF0.43377170562744138
aF0.43362364768981931
aF0.43369183540344236
aF0.43351373672485349
aF0.43365082740783689
aF0.43358693122863767
aF0.45128974914550779
asg15
F2
sg16
I30
sg17
(F0.45128974914550779
F0.45139598846435547
F0.00010623931884765626
tp66
sbsS'UnicodePredicates'
p67
(iUnicode
UnicodePredicates
p68
(dp69
g8
I45
sg9
(lp70
F0.0090533256530761722
aF0.0091566801071166996
aF0.009046983718872071
aF0.0090471267700195316
aF0.0090552330017089847
aF0.0090473771095275872
aF0.0090517759323120121
aF0.0090474247932434086
aF0.0090476393699646003
aF0.0090487837791442868
aF0.0090491294860839851
aF0.009047281742095948
aF0.0090519309043884284
aF0.0090472221374511726
aF0.0091070413589477532
aF0.0090593338012695309
aF0.0090471386909484856
aF0.0090553879737854011
aF0.0090476870536804199
aF0.009046983718872071
asg11
I20
sg12
I10
sg13
(lp71
F0.39686112403869628
aF0.3975809097290039
aF0.39633994102478026
aF0.39569501876831054
aF0.39508800506591796
aF0.39526109695434569
aF0.39534192085266112
aF0.395383882522583
aF0.39546685218811034
aF0.39511303901672362
asg15
F2
sg16
I12000
sg17
(F0.39511303901672362
F0.4041600227355957
F0.009046983718872071
tp72
sbsS'ForLoops'
p73
(iConstructs
ForLoops
p74
(dp75
g8
I25
sg9
(lp76
F0.00026868581771850587
aF0.0002666354179382324
aF0.0002653837203979492
aF0.00026593208312988283
aF0.00026503801345825197
aF0.00026757717132568358
aF0.00026482343673706055
aF0.00026588439941406251
aF0.00026553869247436523
aF0.00026532411575317381
aF0.00026563405990600588
aF0.00026503801345825197
aF0.00026574134826660154
aF0.0002652883529663086
aF0.00026583671569824219
aF0.0002652883529663086
aF0.00026563405990600588
aF0.00026553869247436523
aF0.00026578903198242186
aF0.00026543140411376952
asg11
I20
sg12
I10
sg13
(lp77
F0.34733325242996216
aF0.34743934869766235
aF0.34852820634841919
aF0.3473392128944397
aF0.34695011377334595
aF0.34683805704116821
aF0.34698039293289185
aF0.34682422876358032
aF0.34698230028152466
aF0.34686309099197388
asg15
F2
sg16
I1000
sg17
(F0.34686309099197388
F0.34712791442871094
F0.00026482343673706055
tp78
sbsS'ConcatStrings'
p79
(iStrings
ConcatStrings
p80
(dp81
g8
I50
sg9
(lp82
F0.0020102977752685545
aF0.0020049929618835447
aF0.0020038485527038574
aF0.0020037412643432615
aF0.002003788948059082
aF0.0020044445991516113
aF0.0020060539245605469
aF0.0020046353340148924
aF0.002003943920135498
aF0.0020042419433593749
aF0.0020200967788696288
aF0.0020077466964721681
aF0.0020057916641235351
aF0.0020058870315551756
aF0.002006042003631592
aF0.0020072937011718752
aF0.0020069360733032228
aF0.002008187770843506
aF0.0020056366920471191
aF0.0020054459571838381
asg11
I20
sg12
I10
sg13
(lp83
F0.77422015666961674
aF0.72966520786285405
aF0.73137514591217045
aF0.7066022634506226
aF0.69379036426544194
aF0.7024811983108521
aF0.70111935138702397
aF0.69191710948944096
aF0.72819821834564213
aF0.69507830142974858
asg15
F2
sg16
I10000
sg17
(F0.69507830142974858
F0.6970820426940918
F0.0020037412643432615
tp84
sbsS'SecondPackageImport'
p85
(iImports
SecondPackageImport
p86
(dp87
g8
I25
sg9
(lp88
F0.00068728923797607418
aF0.00068699121475219722
aF0.00068758726119995113
aF0.0006870388984680176
aF0.00069320201873779297
aF0.00068744421005249021
aF0.00068824291229248043
aF0.00068774223327636717
aF0.00068688392639160156
aF0.00068734884262084957
aF0.00068705081939697261
aF0.00068994760513305662
aF0.0006875038146972656
aF0.00068699121475219722
aF0.00068680047988891604
aF0.00068788528442382808
aF0.0006870388984680176
aF0.00068749189376831059
aF0.0006870388984680176
aF0.00068949460983276363
asg11
I20
sg12
I10
sg13
(lp89
F0.55029734373092654
aF0.55222734212875368
aF0.55196412801742556
aF0.54918035268783572
aF0.55103715658187868
aF0.55240210294723513
aF0.53953918218612673
aF0.55115612745285036
aF0.55086597204208376
aF0.55304106473922732
asg15
F2
sg16
I4000
sg17
(F0.55304106473922732
F0.55372786521911621
F0.00068680047988891604
tp90
sbsS'CompareIntegers'
p91
(iNumbers
CompareIntegers
p92
(dp93
g8
I150
sg9
(lp94
F0.0020833492279052736
aF0.0020752429962158205
aF0.0020783901214599609
aF0.0020756483078002929
aF0.0020752429962158205
aF0.0020749926567077636
aF0.002074754238128662
aF0.0020749449729919435
aF0.0020747900009155272
aF0.002075052261352539
aF0.0020807504653930662
aF0.0020777344703674316
aF0.0020749449729919435
aF0.0020746946334838866
aF0.0020748376846313477
aF0.0020751357078552246
aF0.0020749449729919435
aF0.0020767927169799806
aF0.0020750999450683595
aF0.0020748376846313477
asg11
I20
sg12
I10
sg13
(lp95
F0.35219719409942629
aF0.35235240459442141
aF0.35286142826080324
aF0.35226132869720461
aF0.35174610614776614
aF0.35167434215545657
aF0.35168530941009524
aF0.35172131061553957
aF0.35181334018707278
aF0.35167624950408938
asg15
F2
sg16
I12000
sg17
(F0.35167624950408938
F0.35375094413757324
F0.0020746946334838866
tp96
sbsS'CreateStringsWithConcat'
p97
(iStrings
CreateStringsWithConcat
p98
(dp99
g8
I50
sg9
(lp100
F0.0034639000892639159
aF0.0034628510475158691
aF0.0034615993499755859
aF0.0034676909446716307
aF0.0034629940986633302
aF0.0034625530242919922
aF0.0034619450569152834
aF0.0034619927406311034
aF0.0034621953964233398
aF0.0035705327987670898
aF0.0034621477127075194
aF0.0034620404243469239
aF0.0034705400466918945
aF0.0034650444984436037
aF0.0034619450569152834
aF0.0034618973731994629
aF0.0034623980522155763
aF0.0034620404243469239
aF0.0034672021865844727
aF0.0034646987915039062
asg11
I20
sg12
I10
sg13
(lp101
F0.45024347305297852
aF0.4544224739074707
aF0.45920848846435547
aF0.45341920852661133
aF0.45322728157043457
aF0.45239448547363281
aF0.45485830307006836
aF0.44870352745056152
aF0.44809818267822266
aF0.44898724555969238
asg15
F2
sg16
I20000
sg17
(F0.44898724555969238
F0.45244884490966797
F0.0034615993499755859
tp102
sbsS'SmallLists'
p103
(iLists
SmallLists
p104
(dp105
g8
I85
sg9
(lp106
F0.0013813495635986329
aF0.0013811349868774413
aF0.0013809919357299805
aF0.0015486478805541992
aF0.0013813495635986329
aF0.0013818025588989257
aF0.0013808965682983398
aF0.0013810992240905762
aF0.0013813018798828126
aF0.0013809919357299805
aF0.0013975977897644043
aF0.0013878464698791504
aF0.0013812422752380372
aF0.0013831377029418946
aF0.001381683349609375
aF0.0013806462287902833
aF0.0013811945915222167
aF0.0013809919357299805
aF0.0013812422752380372
aF0.0013808369636535644
asg11
I20
sg12
I10
sg13
(lp107
F0.46226624250411985
aF0.46591452360153196
aF0.46529034376144407
aF0.4663932681083679
aF0.46502236127853391
aF0.4665613532066345
aF0.46494535207748411
aF0.46670726537704466
aF0.46638540029525755
aF0.46640328168869016
asg15
F2
sg16
I8000
sg17
(F0.46640328168869016
F0.46778392791748047
F0.0013806462287902833
tp108
sbsS'CompareUnicode'
p109
(iUnicode
CompareUnicode
p110
(dp111
g8
I50
sg9
(lp112
F0.00265042781829834
aF0.0026473283767700197
aF0.0026473879814147951
aF0.0026619791984558105
aF0.0026483893394470214
aF0.0026470303535461428
aF0.0026467323303222658
aF0.0026473402976989746
aF0.0026469826698303223
aF0.002647686004638672
aF0.0026469826698303223
aF0.0026749253273010256
aF0.0026539802551269532
aF0.0026473283767700197
aF0.0026486873626708984
aF0.0026472330093383787
aF0.0026469826698303223
aF0.0026491761207580568
aF0.0026472330093383787
aF0.002647686004638672
asg11
I20
sg12
I10
sg13
(lp113
F0.39287347793579103
aF0.393204402923584
aF0.39286632537841798
aF0.3934642791748047
aF0.39218611717224122
aF0.39235229492187501
aF0.39220829010009767
aF0.39221425056457521
aF0.39219136238098146
aF0.39224524497985841
asg15
F2
sg16
I15000
sg17
(F0.39224524497985841
F0.39489197731018066
F0.0026467323303222658
tp114
sbsS'SimpleListManipulation'
p115
(iLists
SimpleListManipulation
p116
(dp117
g8
I90
sg9
(lp118
F0.0022562384605407716
aF0.0022503972053527833
aF0.0022498965263366699
aF0.0022503972053527833
aF0.002250087261199951
aF0.0022502899169921874
aF0.0022499442100524904
aF0.0022500991821289063
aF0.0022500395774841309
aF0.0022507429122924803
aF0.002250087261199951
aF0.0022503376007080079
aF0.0022498369216918945
aF0.0022559404373168946
aF0.00225600004196167
aF0.0023265957832336428
aF0.0022847890853881837
aF0.0022504448890686033
aF0.002249789237976074
aF0.0022501349449157715
asg11
I20
sg12
I10
sg13
(lp119
F0.32694904804229735
aF0.3263313055038452
aF0.32648413181304931
aF0.32582228183746337
aF0.32584016323089598
aF0.32587425708770751
aF0.32599418163299559
aF0.32582013607025145
aF0.32577722072601317
aF0.32579510211944579
asg15
F2
sg16
I13000
sg17
(F0.32579510211944579
F0.32804489135742188
F0.002249789237976074
tp120
sbsS'DictWithFloatKeys'
p121
(iDict
DictWithFloatKeys
p122
(dp123
g8
I60
sg9
(lp124
F0.002596580982208252
aF0.0025954842567443848
aF0.0025952816009521484
aF0.0025960803031921387
aF0.0025953292846679688
aF0.0025956273078918458
aF0.0025952339172363283
aF0.0026027798652648927
aF0.0025990843772888184
aF0.0025955915451049806
aF0.0025953292846679688
aF0.0025953769683837889
aF0.0025952816009521484
aF0.0025960326194763182
aF0.0026002883911132812
aF0.0025955319404602053
aF0.0025952816009521484
aF0.0025967836380004885
aF0.0025961399078369141
aF0.0025954365730285643
asg11
I20
sg12
I10
sg13
(lp125
F3.3830828189849855
aF3.4096147537231447
aF3.4093148231506349
aF3.4022378444671633
aF3.3510107517242433
aF3.3565859317779543
aF3.3342959403991701
aF3.3686277389526369
aF3.3563706398010256
aF3.344821882247925
asg15
F2
sg16
I15000
sg17
(F3.344821882247925
F3.3474171161651611
F0.0025952339172363283
tp126
sbsS'CreateNewInstances'
p127
(iNewInstances
CreateNewInstances
p128
(dp129
g8
I14
sg9
(lp130
F0.0014052271842956543
aF0.0014099836349487304
aF0.0014136791229248046
aF0.0014368891716003418
aF0.0014512300491333007
aF0.001470029354095459
aF0.0014906764030456544
aF0.0015215396881103516
aF0.0015372276306152345
aF0.001568281650543213
aF0.0016151905059814454
aF0.0016336321830749511
aF0.0016606330871582031
aF0.0016802310943603515
aF0.0017142891883850098
aF0.0017571330070495605
aF0.001809239387512207
aF0.0018483281135559082
aF0.0018649816513061524
aF0.0019091248512268066
asg11
I20
sg12
I10
sg13
(lp131
F0.47558284997940065
aF0.46319986581802369
aF0.46079875230789186
aF0.45908476114273072
aF0.45833064317703248
aF0.45748878717422486
aF0.46846271753311158
aF0.46338773965835572
aF0.46385170221328736
aF0.46396590471267701
asg15
F2
sg16
I6000
sg17
(F0.46396590471267701
F0.46537113189697266
F0.0014052271842956543
tp132
sbsS'TryExcept'
p133
(iExceptions
TryExcept
p134
(dp135
g8
I150
sg9
(lp136
F0.0025967478752136229
aF0.002595996856689453
aF0.0025963425636291505
aF0.0025960922241210936
aF0.0026021957397460937
aF0.0025961041450500489
aF0.0025959014892578125
aF0.0025962471961975099
aF0.002595949172973633
aF0.0025963425636291505
aF0.002595949172973633
aF0.0025959372520446776
aF0.0025961995124816895
aF0.0025960445404052735
aF0.0025963902473449705
aF0.0025970458984374998
aF0.0025975465774536132
aF0.0025984883308410645
aF0.002595949172973633
aF0.0025963902473449705
asg11
I20
sg12
I10
sg13
(lp137
F0.27937197685241699
aF0.27943992614746094
aF0.27935099601745605
aF0.27911901473999023
aF0.2789452075958252
aF0.27894091606140137
aF0.27893495559692383
aF0.27898931503295898
aF0.27899813652038574
aF0.27893519401550293
asg15
F2
sg16
I15000
sg17
(F0.27893519401550293
F0.28153109550476074
F0.0025959014892578125
tp138
sbsS'ComplexPythonFunctionCalls'
p139
(iCalls
ComplexPythonFunctionCalls
p140
(dp141
g8
I20
sg9
(lp142
F0.0017394900321960449
aF0.0017907857894897462
aF0.0017972469329833984
aF0.0017454862594604493
aF0.0017373323440551757
aF0.0017399907112121582
aF0.0017382383346557617
aF0.0017366886138916015
aF0.0017373919486999511
aF0.0017369389533996582
aF0.0017373323440551757
aF0.0017367839813232423
aF0.00173722505569458
aF0.0017371892929077149
aF0.0017373442649841308
aF0.0017437338829040527
aF0.0017373323440551757
aF0.0017368435859680177
aF0.0017371892929077149
aF0.0017365455627441407
asg11
I20
sg12
I10
sg13
(lp143
F0.50482234954833982
aF0.50847229957580564
aF0.50475249290466306
aF0.50874552726745603
aF0.50534043312072752
aF0.5064514636993408
aF0.50575933456420896
aF0.50597248077392576
aF0.50685153007507322
aF0.50600347518920896
asg15
F2
sg16
I10000
sg17
(F0.50600347518920896
F0.50774002075195312
F0.0017365455627441407
tp144
sbsS'TryRaiseExcept'
p145
(iExceptions
TryRaiseExcept
p146
(dp147
g8
I8
sg9
(lp148
F0.0013824939727783204
aF0.0013826489448547363
aF0.0013821959495544434
aF0.0013822436332702637
aF0.0013820886611938476
aF0.0013820886611938476
aF0.0013824939727783204
aF0.0013823390007019043
aF0.0013923883438110352
aF0.0013826012611389161
aF0.0013822436332702637
aF0.001382291316986084
aF0.001382148265838623
aF0.0013821959495544434
aF0.0013818860054016114
aF0.001382291316986084
aF0.0013826966285705566
aF0.0013822436332702637
aF0.0013818383216857911
aF0.0013822436332702637
asg11
I20
sg12
I10
sg13
(lp149
F0.40900305509567259
aF0.40887025594711301
aF0.40897921323776243
aF0.40750817060470579
aF0.40804628133773801
aF0.40846017599105833
aF0.40790013074874876
aF0.4079220652580261
aF0.40909317731857298
aF0.40816215276718137
asg15
F2
sg16
I8000
sg17
(F0.40816215276718137
F0.40954399108886719
F0.0013818383216857911
tp150
sbsS'IfThenElse'
p151
(iConstructs
IfThenElse
p152
(dp153
g8
I90
sg9
(lp154
F0.0025981426239013671
aF0.0025963425636291505
aF0.0025963425636291505
aF0.0025977492332458496
aF0.0025964021682739259
aF0.0025966405868530274
aF0.0025964021682739259
aF0.0025963902473449705
aF0.0026037931442260743
aF0.0025970935821533203
aF0.0025990486145019533
aF0.0025962471961975099
aF0.0025963068008422853
aF0.0025967478752136229
aF0.0025964975357055664
aF0.0025963544845581054
aF0.0026017904281616213
aF0.0025964021682739259
aF0.0025968551635742188
aF0.0025966525077819823
asg11
I20
sg12
I10
sg13
(lp155
F0.31253184080123902
aF0.31254876852035524
aF0.31353772878646852
aF0.31252063512802125
aF0.3120087504386902
aF0.31200469732284547
aF0.31211079359054567
aF0.31205357313156129
aF0.31203187704086305
aF0.31200278997421266
asg15
F2
sg16
I15000
sg17
(F0.31200278997421266
F0.31459903717041016
F0.0025962471961975099
tp156
sbsS'NormalInstanceAttribute'
p157
(iLookups
NormalInstanceAttribute
p158
(dp159
g8
I120
sg9
(lp160
F0.0017438411712646484
aF0.0017413854598999023
aF0.0017409443855285645
aF0.0017414450645446776
aF0.0017409443855285645
aF0.0017421483993530274
aF0.0017409920692443848
aF0.0017414450645446776
aF0.0017410874366760253
aF0.0017416954040527343
aF0.0017478466033935547
aF0.0017437458038330079
aF0.0017415404319763184
aF0.001745295524597168
aF0.0017411470413208007
aF0.0017415404319763184
aF0.0017409920692443848
aF0.0017417430877685546
aF0.0017411947250366212
aF0.0017418503761291505
asg11
I20
sg12
I10
sg13
(lp161
F0.44647191762924193
aF0.4463751196861267
aF0.44651411771774291
aF0.44570015668869017
aF0.44570111036300658
aF0.44563101530075072
aF0.4458410620689392
aF0.44569586515426635
aF0.44585322141647338
aF0.44578813314437865
asg15
F2
sg16
I10000
sg17
(F0.44578813314437865
F0.44752907752990723
F0.0017409443855285645
tp162
sbsS'BuiltinFunctionCalls'
p163
(iCalls
BuiltinFunctionCalls
p164
(dp165
g8
I85
sg9
(lp166
F0.0010397315025329589
aF0.0010367870330810548
aF0.0010362744331359863
aF0.001036226749420166
aF0.0010361313819885255
aF0.0010365366935729981
aF0.0010362744331359863
aF0.0010361313819885255
aF0.001056230068206787
aF0.0010773301124572753
aF0.0010757327079772949
aF0.0010492205619812012
aF0.0010362863540649414
aF0.0010361313819885255
aF0.001043224334716797
aF0.0010364294052124024
aF0.0010361790657043457
aF0.0010365366935729981
aF0.0010361909866333009
aF0.0010360360145568847
asg11
I20
sg12
I10
sg13
(lp167
F0.53240979909896846
aF0.53452790975570674
aF0.52738202810287471
aF0.52962983846664424
aF0.5263270258903503
aF0.52937806844711299
aF0.52524484395980831
aF0.52959812879562373
aF0.52829898595809932
aF0.53052796125411983
asg15
F2
sg16
I6000
sg17
(F0.53052796125411983
F0.53156399726867676
F0.0010360360145568847
tp168
sbsS'UnicodeMappings'
p169
(iUnicode
UnicodeMappings
p170
(dp171
g8
I36
sg9
(lp172
F0.0020338296890258789
aF0.0020397782325744631
aF0.0020176291465759276
aF0.0020184874534606933
aF0.0020189404487609862
aF0.0020192861557006836
aF0.0020202279090881349
aF0.0020206809043884278
aF0.0020254731178283693
aF0.002026677131652832
aF0.0020275354385375977
aF0.0020276308059692383
aF0.0020288825035095215
aF0.0020290732383728026
aF0.0020320296287536623
aF0.0020292282104492189
aF0.002033090591430664
aF0.0020294785499572754
aF0.0020304322242736816
aF0.0020297884941101072
asg11
I20
sg12
I10
sg13
(lp173
F0.58365331888198857
aF0.58554540872573857
aF0.58362137079238896
aF0.58264123201370244
aF0.58265434503555302
aF0.58305155038833623
aF0.58254753351211552
aF0.58260022401809697
aF0.58266745805740361
aF0.58283625841140752
asg15
F2
sg16
I1000
sg17
(F0.58283625841140752
F0.5848538875579834
F0.0020176291465759276
tp174
sbsS'CompareFloats'
p175
(iNumbers
CompareFloats
p176
(dp177
g8
I150
sg9
(lp178
F0.001393437385559082
aF0.0013821363449096681
aF0.0013818979263305665
aF0.0013809919357299805
aF0.0013831496238708497
aF0.0013811349868774413
aF0.0013810873031616211
aF0.0013809442520141602
aF0.0013810992240905762
aF0.0013808369636535644
aF0.0013811945915222167
aF0.0013813495635986329
aF0.0013812422752380372
aF0.0013807415962219238
aF0.0013864517211914062
aF0.0013813495635986329
aF0.0013812899589538575
aF0.0013811945915222167
aF0.0013807892799377441
aF0.0013809442520141602
asg11
I20
sg12
I10
sg13
(lp179
F0.48475617170333862
aF0.49190229177474976
aF0.49409931898117065
aF0.4923662543296814
aF0.49128431081771851
aF0.49122327566146851
aF0.49112123250961304
aF0.49126023054122925
aF0.49102014303207397
aF0.49126118421554565
asg15
F2
sg16
I8000
sg17
(F0.49126118421554565
F0.49264192581176758
F0.0013807415962219238
tp180
sbsS'StringMappings'
p181
(iStrings
StringMappings
p182
(dp183
g8
I36
sg9
(lp184
F0.0016829490661621094
aF0.0016768455505371093
aF0.0016766905784606934
aF0.0016826868057250976
aF0.0016777873039245605
aF0.0016778349876403809
aF0.0016764521598815918
aF0.0016768336296081542
aF0.0016766428947448731
aF0.0016770362854003906
aF0.0016766428947448731
aF0.0016785979270935059
aF0.0016773462295532227
aF0.0016768932342529296
aF0.0016768932342529296
aF0.0016772866249084473
aF0.0016763925552368164
aF0.0016868352890014649
aF0.0017407417297363281
aF0.0017188429832458497
asg11
I20
sg12
I10
sg13
(lp185
F0.38876144886016845
aF0.38684265613555907
aF0.38674657344818114
aF0.38566343784332274
aF0.38507859706878661
aF0.3843135118484497
aF0.38525168895721434
aF0.38493459224700927
aF0.38473265171051024
aF0.39076678752899169
asg15
F2
sg16
I7000
sg17
(F0.39076678752899169
F0.39244318008422852
F0.0016763925552368164
tp186
sbsS'TryFinally'
p187
(iWith
TryFinally
p188
(dp189
g8
I20
sg9
(lp190
F0.0013857722282409669
aF0.0013844847679138183
aF0.001384270191192627
aF0.0013843297958374024
aF0.0013843774795532227
aF0.0013843774795532227
aF0.0013895869255065919
aF0.0013843894004821778
aF0.0013849258422851563
aF0.0013845324516296386
aF0.0013846278190612793
aF0.0013841748237609862
aF0.0013844251632690429
aF0.0013842344284057616
aF0.0013844251632690429
aF0.0013843774795532227
aF0.001384127140045166
aF0.0013846278190612793
aF0.0013842225074768067
aF0.0013845801353454591
asg11
I20
sg12
I10
sg13
(lp191
F0.4348420023918152
aF0.43496097326278688
aF0.43560708761215211
aF0.43422282934188844
aF0.43420494794845582
aF0.43425787687301637
aF0.43437303304672242
aF0.43517483472824098
aF0.43420995473861695
aF0.43558872938156129
asg15
F2
sg16
I8000
sg17
(F0.43558872938156129
F0.43697285652160645
F0.001384127140045166
tp192
sbsS'Recursion'
p193
(iCalls
Recursion
p194
(dp195
g8
I5
sg9
(lp196
F0.0017316818237304687
aF0.0017444849014282226
aF0.0017312407493591309
aF0.0017301321029663086
aF0.0017313838005065918
aF0.0017305254936218263
aF0.0017306327819824219
aF0.0017304897308349609
aF0.0017306804656982422
aF0.0017304301261901855
aF0.0017306327819824219
aF0.0017307877540588378
aF0.0017360329627990722
aF0.0017304420471191406
aF0.0017308354377746581
aF0.0017304301261901855
aF0.0017302751541137696
aF0.0017310738563537597
aF0.0017302870750427247
aF0.0017311811447143556
asg11
I20
sg12
I10
sg13
(lp197
F0.58036191463470455
aF0.57990987300872798
aF0.58192474842071529
aF0.57899887561798091
aF0.57883388996124263
aF0.57884294986724849
aF0.57851274013519283
aF0.57883102893829341
aF0.57893283367156978
aF0.57877690792083736
asg15
F2
sg16
I10000
sg17
(F0.57877690792083736
F0.58050704002380371
F0.0017301321029663086
tp198
sbsS'SimpleLongArithmetic'
p199
(iArithmetic
SimpleLongArithmetic
p200
(dp201
g8
I110
sg9
(lp202
F0.0010352015495300293
aF0.0010347366333007812
aF0.0010351419448852539
aF0.0010347008705139161
aF0.0010346412658691407
aF0.0010391950607299804
aF0.0010356426239013672
aF0.0010349392890930177
aF0.0010387897491455078
aF0.0010348916053771972
aF0.0010618925094604491
aF0.0010347962379455566
aF0.0010347366333007812
aF0.0010347843170166015
aF0.0010349392890930177
aF0.0010354876518249511
aF0.0010346412658691407
aF0.0010351419448852539
aF0.0010347962379455566
aF0.0010347366333007812
asg11
I20
sg12
I10
sg13
(lp203
F0.32587323188781736
aF0.32737646102905271
aF0.32614550590515134
aF0.3254984378814697
aF0.32651338577270506
aF0.32625041007995603
aF0.32639226913452146
aF0.3254674434661865
aF0.32587537765502927
aF0.3252845764160156
asg15
F2
sg16
I6000
sg17
(F0.3252845764160156
F0.32631921768188477
F0.0010346412658691407
tp204
sbsS'SimpleDictManipulation'
p205
(iDict
SimpleDictManipulation
p206
(dp207
g8
I120
sg9
(lp208
F0.0017314434051513671
aF0.001730644702911377
aF0.0017303466796875001
aF0.0017309069633483886
aF0.001730501651763916
aF0.0017934441566467285
aF0.0017803430557250977
aF0.0017307400703430176
aF0.0017302393913269042
aF0.0017306566238403319
aF0.0017363429069519043
aF0.0017312526702880859
aF0.0017304420471191406
aF0.001730501651763916
aF0.0017304420471191406
aF0.001730501651763916
aF0.0017303943634033204
aF0.0017314910888671874
aF0.0017310500144958497
aF0.0017303466796875001
asg11
I20
sg12
I10
sg13
(lp209
F0.41369982957839968
aF0.41468878984451296
aF0.41712590456008913
aF0.41395970582962038
aF0.41341062784194949
aF0.41287275552749636
aF0.41325494050979616
aF0.41325160264968874
aF0.41335579156875613
aF0.41332479715347292
asg15
F2
sg16
I10000
sg17
(F0.41332479715347292
F0.4150550365447998
F0.0017302393913269042
tp210
sbsS'WithRaiseExcept'
p211
(iWith
WithRaiseExcept
p212
(dp213
g8
I8
sg9
(lp214
F0.0017352342605590821
aF0.0017330288887023927
aF0.0017325758934020996
aF0.0017335891723632812
aF0.0017326951026916503
aF0.0017329812049865722
aF0.0017324328422546388
aF0.0017325878143310547
aF0.0017330288887023927
aF0.0017325401306152344
aF0.0017334342002868653
aF0.0017325878143310547
aF0.0017329812049865722
aF0.001732480525970459
aF0.0017406821250915527
aF0.0017396807670593262
aF0.001733386516571045
aF0.001732778549194336
aF0.0017335295677185058
aF0.001732635498046875
asg11
I20
sg12
I10
sg13
(lp215
F0.86200944185256956
aF0.8630077004432678
aF0.8624896168708801
aF0.85956660509109495
aF0.85887042284011839
aF0.85853854417800901
aF0.86039272546768186
aF0.86080065965652464
aF0.85880557298660276
aF0.87094346284866331
asg15
F2
sg16
I10000
sg17
(F0.87094346284866331
F0.87267589569091797
F0.0017324328422546388
tp216
sbsS'UnicodeProperties'
p217
(iUnicode
UnicodeProperties
p218
(dp219
g8
I40
sg9
(lp220
F0.0075488448143005375
aF0.0075500011444091797
aF0.0075477004051208493
aF0.007660496234893799
aF0.0075477480888366697
aF0.0075473070144653322
aF0.0075469017028808594
aF0.007555341720581055
aF0.0075472950935363773
aF0.0075468063354492184
aF0.0075522541999816896
aF0.0075468063354492184
aF0.0075469970703125003
aF0.0075469970703125003
aF0.0075502872467041017
aF0.0075471878051757814
aF0.0075517416000366209
aF0.0075473904609680174
aF0.0075466990470886234
aF0.0075474977493286133
asg11
I20
sg12
I10
sg13
(lp221
F0.43354626893997195
aF0.40589925050735476
aF0.40711637735366824
aF0.4033262372016907
aF0.40449925661087038
aF0.40758630037307741
aF0.4038602948188782
aF0.40734835863113406
aF0.40420147180557253
aF0.4075231194496155
asg15
F2
sg16
I10000
sg17
(F0.4075231194496155
F0.4150698184967041
F0.0075466990470886234
tp222
sbsS'SimpleIntFloatArithmetic'
p223
(iArithmetic
SimpleIntFloatArithmetic
p224
(dp225
g8
I110
sg9
(lp226
F0.0020771384239196776
aF0.0020750880241394041
aF0.002074897289276123
aF0.002074897289276123
aF0.0020757436752319334
aF0.002075052261352539
aF0.0020749449729919435
aF0.0020749926567077636
aF0.0020749449729919435
aF0.002074897289276123
aF0.0020892381668090819
aF0.0020757436752319334
aF0.0020750403404235841
aF0.002074897289276123
aF0.0020748496055603026
aF0.002074897289276123
aF0.0020753979682922364
aF0.0020754337310791016
aF0.0020749926567077636
aF0.0020748019218444825
asg11
I20
sg12
I10
sg13
(lp227
F0.57009330987930296
aF0.5680712819099426
aF0.563478147983551
aF0.56748834848403928
aF0.56831327676773069
aF0.56718007326126096
aF0.56771317720413206
aF0.56638208627700803
aF0.57105222940444944
aF0.56992713212966917
asg15
F2
sg16
I12000
sg17
(F0.56992713212966917
F0.57200193405151367
F0.0020748019218444825
tp228
sbsS'CreateUnicodeWithConcat'
p229
(iUnicode
CreateUnicodeWithConcat
p230
(dp231
g8
I50
sg9
(lp232
F0.0013817787170410157
aF0.0013814330101013183
aF0.0013814210891723634
aF0.0013811349868774413
aF0.0013811826705932618
aF0.0013809323310852051
aF0.0013812303543090821
aF0.0013812303543090821
aF0.0013812303543090821
aF0.001381385326385498
aF0.0013812899589538575
aF0.001381385326385498
aF0.0013811349868774413
aF0.0013809800148010254
aF0.0013811826705932618
aF0.0013812780380249023
aF0.0013811349868774413
aF0.0013978362083435058
aF0.0013821363449096681
aF0.0013815402984619141
asg11
I20
sg12
I10
sg13
(lp233
F0.28355907201766967
aF0.28432201147079467
aF0.2847540259361267
aF0.28401707410812377
aF0.28387807607650756
aF0.2832438826560974
aF0.28345607519149779
aF0.28307222127914428
aF0.2832891821861267
aF0.28343986272811889
asg15
F2
sg16
I8000
sg17
(F0.28343986272811889
F0.2848207950592041
F0.0013809323310852051
tp234
sbsS'ListSlicing'
p235
(iLists
ListSlicing
p236
(dp237
g8
I175
sg9
(lp238
F0.00033698081970214846
aF0.00033757686614990237
aF0.00033713579177856444
aF0.00033668279647827151
aF0.00033702850341796873
aF0.00033727884292602541
aF0.00033653974533081054
aF0.00033727884292602541
aF0.00033712387084960938
aF0.00033663511276245118
aF0.00033698081970214846
aF0.00033723115921020509
aF0.00033658742904663086
aF0.00033713579177856444
aF0.00033713579177856444
aF0.00033718347549438477
aF0.00033648014068603515
aF0.00033727884292602541
aF0.00033698081970214846
aF0.00033648014068603515
asg11
I20
sg12
I10
sg13
(lp239
F0.48266141414642333
aF0.47421138286590575
aF0.47373859882354735
aF0.48299758434295653
aF0.47197763919830321
aF0.47289555072784423
aF0.47247331142425536
aF0.47239344120025634
aF0.47220151424407958
aF0.47225444316864013
asg15
F2
sg16
I80
sg17
(F0.47225444316864013
F0.47259092330932617
F0.00033648014068603515
tp240
sbsS'SimpleListComprehensions'
p241
(iLists
SimpleListComprehensions
p242
(dp243
g8
I6
sg9
(lp244
F0.00035369396209716797
aF0.0003513455390930176
aF0.00035079717636108396
aF0.00035119056701660156
aF0.00035123825073242189
aF0.00035079717636108396
aF0.00035129785537719728
aF0.00035129785537719728
aF0.00035148859024047852
aF0.00035070180892944337
aF0.00035129785537719728
aF0.0003513455390930176
aF0.0003505587577819824
aF0.0003513455390930176
aF0.00035123825073242189
aF0.00035120248794555663
aF0.00035059452056884766
aF0.00035135746002197267
aF0.00035120248794555663
aF0.00035065412521362305
asg11
I20
sg12
I10
sg13
(lp245
F0.44857445955276487
aF0.4568795323371887
aF0.45583144426345823
aF0.4557053208351135
aF0.45401540994644163
aF0.45239535570144651
aF0.45125356912612913
aF0.45180741548538206
aF0.44441953897476194
aF0.44907752275466917
asg15
F2
sg16
I2000
sg17
(F0.44907752275466917
F0.44942808151245117
F0.0003505587577819824
tp246
sbsS'CompareLongs'
p247
(iNumbers
CompareLongs
p248
(dp249
g8
I150
sg9
(lp250
F0.0012099981307983399
aF0.0012092471122741699
aF0.0012092947959899901
aF0.0012152075767517089
aF0.0012196540832519532
aF0.0012088894844055175
aF0.0012093901634216309
aF0.0012087464332580567
aF0.0012090921401977539
aF0.001208794116973877
aF0.0012086987495422362
aF0.0012091517448425293
aF0.0012087464332580567
aF0.001209700107574463
aF0.0012088418006896973
aF0.0012090563774108886
aF0.0012089014053344727
aF0.0012087464332580567
aF0.0012091875076293945
aF0.0012134432792663575
asg11
I20
sg12
I10
sg13
(lp251
F0.33644636869430544
aF0.336668336391449
aF0.33658512830734255
aF0.33631213903427126
aF0.33599933385849001
aF0.33583625555038454
aF0.33583148717880251
aF0.33582314252853396
aF0.3358603358268738
aF0.33597739934921267
asg15
F2
sg16
I7000
sg17
(F0.33597739934921267
F0.33718609809875488
F0.0012086987495422362
tp252
sbsS'SimpleIntegerArithmetic'
p253
(iArithmetic
SimpleIntegerArithmetic
p254
(dp255
g8
I110
sg9
(lp256
F0.002080821990966797
aF0.0020747780799865723
aF0.0020749330520629882
aF0.0020748734474182128
aF0.0020746350288391112
aF0.0020746350288391112
aF0.0020744323730468748
aF0.0020744800567626953
aF0.0020746350288391112
aF0.0020751357078552246
aF0.0020745396614074707
aF0.0020743846893310548
aF0.0020745873451232912
aF0.0020745277404785158
aF0.0020814418792724611
aF0.0020755290985107421
aF0.0020763874053955078
aF0.0020746350288391112
aF0.0020744800567626953
aF0.0020746231079101563
asg11
I20
sg12
I10
sg13
(lp257
F0.57189044952392576
aF0.56674060821533201
aF0.5624667167663574
aF0.56663379669189451
aF0.56790456771850584
aF0.5672727584838867
aF0.5681274890899658
aF0.56633672714233396
aF0.57101354598999021
aF0.56795558929443357
asg15
F2
sg16
I12000
sg17
(F0.56795558929443357
F0.57002997398376465
F0.0020743846893310548
tp258
sbsS'SpecialClassAttribute'
p259
(iLookups
SpecialClassAttribute
p260
(dp261
g8
I120
sg9
(lp262
F0.0017427802085876465
aF0.0017401814460754395
aF0.0017399907112121582
aF0.0017545223236083984
aF0.0017403364181518555
aF0.0017402768135070801
aF0.0017398357391357421
aF0.0017407417297363281
aF0.0017399311065673829
aF0.0017403721809387206
aF0.0017397880554199218
aF0.0017401814460754395
aF0.0017398715019226075
aF0.0017401814460754395
aF0.0017436385154724122
aF0.0017418265342712402
aF0.0017400264739990234
aF0.0017405867576599122
aF0.0017396926879882813
aF0.0017404794692993165
asg11
I20
sg12
I10
sg13
(lp263
F0.47371010780334472
aF0.47296409606933593
aF0.47287421226501464
aF0.47316722869873046
aF0.47245912551879882
aF0.47298030853271483
aF0.47296624183654784
aF0.47302751541137694
aF0.47313528060913085
aF0.47297720909118651
asg15
F2
sg16
I10000
sg17
(F0.47297720909118651
F0.4747169017791748
F0.0017396926879882813
tp264
sbsS'SecondImport'
p265
(iImports
SecondImport
p266
(dp267
g8
I25
sg9
(lp268
F0.00068733692169189455
aF0.00068759918212890625
aF0.00068694353103637695
aF0.00068699121475219722
aF0.00068744421005249021
aF0.00068694353103637695
aF0.00068744421005249021
aF0.00068683624267578129
aF0.00068694353103637695
aF0.0006873011589050293
aF0.00068694353103637695
aF0.00068728923797607418
aF0.00068713426589965825
aF0.00068683624267578129
aF0.00068749189376831059
aF0.00068689584732055668
aF0.00068733692169189455
aF0.00068759918212890625
aF0.0006870388984680176
aF0.00068724155426025391
asg11
I20
sg12
I10
sg13
(lp269
F0.54154424667358403
aF0.53292803764343266
aF0.52950410842895512
aF0.52546601295471196
aF0.52694921493530278
aF0.52818326950073247
aF0.51294903755187993
aF0.5265861034393311
aF0.52674822807312016
aF0.52699403762817387
asg15
F2
sg16
I4000
sg17
(F0.52699403762817387
F0.52768087387084961
F0.00068683624267578129
tp270
sbsS'WithFinally'
p271
(iWith
WithFinally
p272
(dp273
g8
I20
sg9
(lp274
F0.0013868808746337891
aF0.0013842225074768067
aF0.0013842821121215821
aF0.0013860821723937987
aF0.0013846755027770996
aF0.0013843297958374024
aF0.0013865351676940918
aF0.001384127140045166
aF0.0013842225074768067
aF0.0013839840888977052
aF0.0014378786087036132
aF0.0014339804649353028
aF0.001392829418182373
aF0.0013840317726135254
aF0.0013846278190612793
aF0.0013839840888977052
aF0.0013839364051818847
aF0.0013898730278015137
aF0.0013845324516296386
aF0.001384127140045166
asg11
I20
sg12
I10
sg13
(lp275
F0.58548315763473513
aF0.58471783399581911
aF0.58391007184982302
aF0.58437117338180544
aF0.58310302495956423
aF0.58287390470504763
aF0.58281501531600954
aF0.5829759478569031
aF0.58057221174240115
aF0.59372695684432986
asg15
F2
sg16
I8000
sg17
(F0.59372695684432986
F0.59511089324951172
F0.0013839364051818847
tp276
sbsS'TupleSlicing'
p277
(iTuples
TupleSlicing
p278
(dp279
g8
I5250
sg9
(lp280
F0.00022178888320922852
aF0.00021997690200805664
aF0.00022072792053222655
aF0.00021982192993164062
aF0.00021997690200805664
aF0.0002204298973083496
aF0.00021997690200805664
aF0.00022053718566894531
aF0.00021998882293701173
aF0.00022053718566894531
aF0.00021998882293701173
aF0.00022048950195312499
aF0.00021998882293701173
aF0.00022058486938476564
aF0.00022003650665283203
aF0.00021988153457641602
aF0.00022063255310058593
aF0.00022543668746948241
aF0.00022188425064086914
aF0.00022058486938476564
asg11
I20
sg12
I10
sg13
(lp281
F0.44938039779663086
aF0.43208718299865723
aF0.43459534645080566
aF0.43029904365539551
aF0.43061614036560059
aF0.43165922164916992
aF0.42874622344970703
aF0.43563508987426758
aF0.43134021759033203
aF0.43052911758422852
asg15
F2
sg16
I50
sg17
(F0.43052911758422852
F0.43074893951416016
F0.00021982192993164062
tp282
sbsS'SimpleFloatArithmetic'
p283
(iArithmetic
SimpleFloatArithmetic
p284
(dp285
g8
I110
sg9
(lp286
F0.0020774841308593751
aF0.0020759344100952149
aF0.0020760893821716309
aF0.0020759344100952149
aF0.0020758390426635744
aF0.0020763874053955078
aF0.0020841360092163086
aF0.0020761847496032714
aF0.0020777344703674316
aF0.0020761370658874513
aF0.0020760416984558104
aF0.0020763874053955078
aF0.0020762801170349119
aF0.002075982093811035
aF0.0020759344100952149
aF0.0020758867263793944
aF0.0020816326141357422
aF0.002077782154083252
aF0.0020761966705322267
aF0.002075982093811035
asg11
I20
sg12
I10
sg13
(lp287
F0.77232320308685298
aF0.77379424571990962
aF0.77279622554779048
aF0.764574122428894
aF0.76898128986358638
aF0.76786620616912837
aF0.76929528713226314
aF0.76926834583282466
aF0.76954419612884517
aF0.76994307041168208
asg15
F2
sg16
I12000
sg17
(F0.76994307041168208
F0.7720189094543457
F0.0020758390426635744
tp288
sbsS'StringPredicates'
p289
(iStrings
StringPredicates
p290
(dp291
g8
I70
sg9
(lp292
F0.0075978517532348635
aF0.0075821995735168455
aF0.0075858950614929197
aF0.0075827479362487789
aF0.0075814962387084957
aF0.0075821876525878906
aF0.007589292526245117
aF0.0075842857360839842
aF0.0075820922851562497
aF0.0075872421264648439
aF0.0075827956199645994
aF0.0075829386711120609
aF0.0077126383781433109
aF0.0075699925422668454
aF0.0075596928596496586
aF0.00754244327545166
aF0.0075502395629882812
aF0.0075423359870910641
aF0.007541942596435547
aF0.0075417995452880856
asg11
I20
sg12
I10
sg13
(lp293
F0.41388616561889646
aF0.41342506408691404
aF0.41391429901123045
aF0.41246018409729002
aF0.41222200393676756
aF0.41235599517822263
aF0.41216311454772947
aF0.41294322013854978
aF0.41268215179443357
aF0.41264734268188474
asg15
F2
sg16
I10000
sg17
(F0.41264734268188474
F0.42018914222717285
F0.0075417995452880856
tp294
sbsS'BuiltinMethodLookup'
p295
(iLookups
BuiltinMethodLookup
p296
(dp297
g8
I150
sg9
(lp298
F0.0012111425399780273
aF0.0012113928794860839
aF0.0012109994888305664
aF0.0012099504470825194
aF0.0012094497680664063
aF0.0012097954750061035
aF0.0012094974517822266
aF0.0012092947959899901
aF0.0012097477912902832
aF0.0012092471122741699
aF0.0012099504470825194
aF0.0012092947959899901
aF0.0012099981307983399
aF0.0012094974517822266
aF0.0012093544006347655
aF0.0012099027633666992
aF0.0012091994285583496
aF0.0012098908424377441
aF0.0012094497680664063
aF0.0012160062789916993
asg11
I20
sg12
I10
sg13
(lp299
F0.43368679285049438
aF0.43413764238357544
aF0.43480378389358521
aF0.43366080522537231
aF0.43296486139297485
aF0.43405896425247192
aF0.43421775102615356
aF0.43411284685134888
aF0.43296676874160767
aF0.43405371904373169
asg15
F2
sg16
I7000
sg17
(F0.43405371904373169
F0.43526291847229004
F0.0012091994285583496
tp300
sbsS'SimpleComplexArithmetic'
p301
(iArithmetic
SimpleComplexArithmetic
p302
(dp303
g8
I110
sg9
(lp304
F0.0013858795166015625
aF0.0013816356658935547
aF0.0013818383216857911
aF0.001381683349609375
aF0.0013817310333251952
aF0.0013818860054016114
aF0.0013825297355651855
aF0.0013815760612487793
aF0.001381826400756836
aF0.0013817906379699706
aF0.0013818860054016114
aF0.001381385326385498
aF0.0013818860054016114
aF0.0013817310333251952
aF0.0013817310333251952
aF0.0013819813728332519
aF0.0013814330101013183
aF0.0013829827308654784
aF0.0013877272605895997
aF0.001387941837310791
asg11
I20
sg12
I10
sg13
(lp305
F1.3978355050086975
aF1.3945746541023254
aF1.398409616947174
aF1.3969457268714904
aF1.4001345753669738
aF1.3980076432228088
aF1.3970885396003723
aF1.3962526440620422
aF1.4028465867042541
aF1.4002826333045959
asg15
F2
sg16
I8000
sg17
(F1.4002826333045959
F1.4016640186309814
F0.001381385326385498
tp306
sbsS'ConcatUnicode'
p307
(iUnicode
ConcatUnicode
p308
(dp309
g8
I50
sg9
(lp310
F0.0013390421867370606
aF0.0013331532478332519
aF0.0013326883316040039
aF0.0013321399688720702
aF0.0013321876525878907
aF0.0013322472572326661
aF0.001331794261932373
aF0.0013312458992004394
aF0.0013314008712768555
aF0.0013314485549926758
aF0.0013324499130249023
aF0.0013326525688171387
aF0.0013321518898010253
aF0.0013316392898559571
aF0.0013321876525878907
aF0.0013322472572326661
aF0.001331794261932373
aF0.0013321995735168456
aF0.0013316512107849122
aF0.0013309001922607421
asg11
I20
sg12
I10
sg13
(lp311
F0.50141115188598628
aF0.50225729942321773
aF0.50000305175781246
aF0.50523014068603511
aF0.49863905906677247
aF0.50256009101867671
aF0.50258703231811519
aF0.49940319061279298
aF0.52054615020751949
aF0.49928922653198243
asg15
F2
sg16
I6000
sg17
(F0.49928922653198243
F0.50062012672424316
F0.0013309001922607421
tp312
sbsS'CompareInternedStrings'
p313
(iStrings
CompareInternedStrings
p314
(dp315
g8
I50
sg9
(lp316
F0.0052292823791503908
aF0.0052397727966308595
aF0.0052258253097534181
aF0.0052257418632507321
aF0.0052246809005737308
aF0.0052319884300231932
aF0.0052250385284423832
aF0.0052247285842895504
aF0.0052249312400817873
aF0.0052249789237976078
aF0.0052249312400817873
aF0.0052340269088745114
aF0.0053394317626953127
aF0.0052258253097534181
aF0.0052245855331420898
aF0.005803430080413818
aF0.0052257776260375977
aF0.0052291870117187498
aF0.0052253365516662601
aF0.0052249789237976078
asg11
I20
sg12
I10
sg13
(lp317
F0.41140234470367432
aF0.40931546688079834
aF0.40972435474395752
aF0.40935838222503662
aF0.40320956707000732
aF0.40864837169647217
aF0.40876543521881104
aF0.40862643718719482
aF0.40861642360687256
aF0.40860331058502197
asg15
F2
sg16
I30000
sg17
(F0.40860331058502197
F0.41382789611816406
F0.0052245855331420898
tp318
sbsS'CompareStrings'
p319
(iStrings
CompareStrings
p320
(dp321
g8
I50
sg9
(lp322
F0.0035091400146484374
aF0.0035082817077636717
aF0.0035072326660156249
aF0.0035072803497314454
aF0.0035072803497314454
aF0.0035077810287475588
aF0.0035081386566162111
aF0.0035077333450317383
aF0.0035258889198303222
aF0.0035588741302490234
aF0.0035074353218078613
aF0.0035071849822998049
aF0.0035202860832214355
aF0.0035150289535522462
aF0.0035139322280883789
aF0.0035072803497314454
aF0.0035077214241027834
aF0.0035087823867797851
aF0.0035072922706604003
aF0.0035077214241027834
asg11
I20
sg12
I10
sg13
(lp323
F0.3927468776702881
aF0.39711589813232423
aF0.39699287414550782
aF0.39943261146545411
aF0.40064878463745118
aF0.39417285919189454
aF0.39331002235412599
aF0.39207167625427247
aF0.39033384323120118
aF0.39602584838867189
asg15
F2
sg16
I20000
sg17
(F0.39602584838867189
F0.39953303337097168
F0.0035071849822998049
tp324
sbsS'SmallTuples'
p325
(iTuples
SmallTuples
p326
(dp327
g8
I60
sg9
(lp328
F0.0015549898147583009
aF0.0015543460845947265
aF0.0015541911125183105
aF0.001554584503173828
aF0.0015602350234985352
aF0.0015544891357421875
aF0.0015544414520263672
aF0.0015547394752502442
aF0.0015545368194580078
aF0.001554393768310547
aF0.0015542387962341308
aF0.0015542864799499511
aF0.0015547871589660645
aF0.0015542864799499511
aF0.0015541434288024903
aF0.0015546441078186034
aF0.0015541911125183105
aF0.0015546441078186034
aF0.0015542984008789062
aF0.0015542984008789062
asg11
I20
sg12
I10
sg13
(lp329
F0.44277297258377074
aF0.44155083894729613
aF0.44295083284378051
aF0.43984996080398558
aF0.43634186983108519
aF0.43364988565444945
aF0.4357477307319641
aF0.43604170083999633
aF0.44138585329055785
aF0.43920480012893676
asg15
F2
sg16
I9000
sg17
(F0.43920480012893676
F0.44075894355773926
F0.0015541434288024903
tp330
sbsS'NormalClassAttribute'
p331
(iLookups
NormalClassAttribute
p332
(dp333
g8
I120
sg9
(lp334
F0.0017415404319763184
aF0.0017395734786987305
aF0.0017517805099487305
aF0.0017396807670593262
aF0.0017387866973876953
aF0.0017395377159118651
aF0.0017387270927429199
aF0.0017392754554748536
aF0.0017388343811035156
aF0.0017393827438354492
aF0.0017394304275512695
aF0.0017392277717590333
aF0.0017388343811035156
aF0.0017586827278137207
aF0.0018043279647827148
aF0.0017732739448547362
aF0.0017392396926879882
aF0.0017395377159118651
aF0.0017389297485351563
aF0.0017393350601196289
asg11
I20
sg12
I10
sg13
(lp335
F0.47670727968215942
aF0.47679930925369263
aF0.48806124925613403
aF0.47595411539077759
aF0.47613245248794556
aF0.47478824853897095
aF0.47477227449417114
aF0.4749482274055481
aF0.47494035959243774
aF0.47478824853897095
asg15
F2
sg16
I10000
sg17
(F0.47478824853897095
F0.47652697563171387
F0.0017387270927429199
tp336
sbsS'CreateInstances'
p337
(iInstances
CreateInstances
p338
(dp339
g8
I14
sg9
(lp340
F0.0014133930206298828
aF0.0014101386070251465
aF0.0014160513877868653
aF0.00141143798828125
aF0.0014092922210693359
aF0.0014127492904663086
aF0.0014106869697570802
aF0.0014097929000854493
aF0.0014098405838012696
aF0.0014102935791015625
aF0.0014092445373535157
aF0.0014094471931457519
aF0.0014096975326538086
aF0.0014094471931457519
aF0.0014095425605773926
aF0.0014095425605773926
aF0.0014093518257141113
aF0.0014173984527587891
aF0.0014105439186096191
aF0.0014098405838012696
asg11
I20
sg12
I10
sg13
(lp341
F0.60255079269409184
aF0.59796576499938969
aF0.59274678230285649
aF0.59175376892089848
aF0.5883536815643311
aF0.59013586044311528
aF0.59574155807495122
aF0.59127955436706547
aF0.59145288467407231
aF0.58976774215698247
asg15
F2
sg16
I8000
sg17
(F0.58976774215698247
F0.59117698669433594
F0.0014092445373535157
tp342
sbsS'DictWithStringKeys'
p343
(iDict
DictWithStringKeys
p344
(dp345
g8
I60
sg9
(lp346
F0.003465700149536133
aF0.0034628868103027343
aF0.0034623861312866209
aF0.0034623384475708009
aF0.0034667849540710449
aF0.0034629940986633302
aF0.0034624934196472168
aF0.0034623384475708009
aF0.0034626364707946778
aF0.0034624457359313963
aF0.0034623861312866209
aF0.0034623861312866209
aF0.0034626483917236327
aF0.0034769415855407716
aF0.0034624934196472168
aF0.0034622907638549804
aF0.0034626960754394532
aF0.0034624934196472168
aF0.0034624934196472168
aF0.003467845916748047
asg11
I20
sg12
I10
sg13
(lp347
F0.37092282772064211
aF0.37084057331085207
aF0.37087085247039797
aF0.37202861309051516
aF0.3702807664871216
aF0.37044575214385989
aF0.37088277339935305
aF0.37028672695159914
aF0.37027766704559328
aF0.37101867198944094
asg15
F2
sg16
I20000
sg17
(F0.37101867198944094
F0.3744809627532959
F0.0034622907638549804
tp348
sbsS'DictCreation'
p349
(iDict
DictCreation
p350
(dp351
g8
I50
sg9
(lp352
F0.0013835549354553223
aF0.0013829469680786133
aF0.0013823509216308594
aF0.0013829469680786133
aF0.0013826966285705566
aF0.0013827919960021974
aF0.0013826012611389161
aF0.0013823986053466796
aF0.0013833403587341308
aF0.001382756233215332
aF0.0013828039169311523
aF0.0013872981071472168
aF0.0013833999633789062
aF0.0013827919960021974
aF0.0013827443122863769
aF0.0013826012611389161
aF0.0013825058937072753
aF0.0013832449913024902
aF0.0013827919960021974
aF0.0013827443122863769
asg11
I20
sg12
I10
sg13
(lp353
F0.32539772987365723
aF0.32505464553833008
aF0.32515478134155273
aF0.32604551315307617
aF0.32499361038208008
aF0.32493257522583008
aF0.32489156723022461
aF0.32496857643127441
aF0.32455253601074219
aF0.3249056339263916
asg15
F2
sg16
I8000
sg17
(F0.3249056339263916
F0.32628798484802246
F0.0013823509216308594
tp354
sbsS'StringSlicing'
p355
(iStrings
StringSlicing
p356
(dp357
g8
I35
sg9
(lp358
F0.0029230952262878419
aF0.0029152989387512206
aF0.0029118537902832033
aF0.0029146432876586913
aF0.0029123425483703613
aF0.0029120445251464844
aF0.0029124498367309572
aF0.0034868001937866213
aF0.0029145479202270508
aF0.0029121994972229003
aF0.0029129385948181152
aF0.0029124975204467773
aF0.0030130982398986817
aF0.0029254436492919924
aF0.0029124855995178224
aF0.0029124379158020019
aF0.0029119491577148438
aF0.002926802635192871
aF0.0029127001762390137
aF0.0029129385948181152
asg11
I20
sg12
I10
sg13
(lp359
F0.27194614410400392
aF0.2725390911102295
aF0.27226300239562989
aF0.27029318809509278
aF0.27295727729797364
aF0.27130718231201173
aF0.27147717475891114
aF0.2707080364227295
aF0.27128405570983888
aF0.27752227783203126
asg15
F2
sg16
I16000
sg17
(F0.27752227783203126
F0.28043413162231445
F0.0029118537902832033
tp360
sbssS'name'
p361
S'without_p27_kv1_1.pybench'
p362
sg11
I20
sg12
I10
sS'machine_details'
p363
(dp364
S'platform'
p365
S'Linux-3.10.20-rt14katana_v1.0.3+AUTOINC+84a91af059-mips64-with-glibc2.3.3'
p366
sS'executable'
p367
S'/usr/local/bin/python'
p368
sS'builddate'
p369
S'Dec 31 2015 05:24:35'
p370
sS'unicode'
p371
S'UCS2'
p372
sS'implementation'
p373
S'CPython'
p374
sS'compiler'
p375
S'GCC 4.7.0'
p376
sS'bits'
p377
S'64bit'
p378
sS'processor'
p379
S''
sS'buildno'
p380
S'default'
p381
sS'python'
p382
S'2.7.11'
p383
ssS'timer'
p384
S'time.time'
p385
sg15
F2
sS'roundtimes'
p386
(lp387
F31.364465188980109
aF31.28202242851258
aF31.25550646781922
aF31.173951578140265
aF31.09433121681214
aF31.12434716224671
aF31.047754716873175
aF31.115275335311896
aF31.156066370010382
aF31.151517581939704
asg16
I10
sS'verbose'
p388
I0
sb.