(i__main__
Benchmark
p1
(dp2
S'tests'
p3
(dp4
S'SpecialInstanceAttribute'
p5
(iLookups
SpecialInstanceAttribute
p6
(dp7
S'operations'
p8
I120
sS'overhead_times'
p9
(lp10
F0.0051426410675048826
aF0.014942598342895509
aF0.019942545890808107
aF0.005141043663024902
aF0.014942336082458495
aF0.014942348003387451
aF0.014942300319671632
aF0.010141348838806153
aF0.014942491054534912
aF0.014942193031311035
aF0.01494208574295044
aF0.0051414489746093748
aF0.014942491054534912
aF0.014942586421966553
aF0.010141289234161377
aF0.014942038059234618
aF0.014942240715026856
aF0.014942133426666259
aF0.0051413893699645994
aF0.019942486286163331
asS'calibration_runs'
p11
I20
sS'warp'
p12
I10
sS'times'
p13
(lp14
F4.8977880239486691
aF4.9936558961868283
aF4.9937038183212277
aF4.8975639104843136
aF4.9936859369277951
aF4.9934949636459347
aF4.9936051130294796
aF4.9943349123001095
aF4.9942519426345822
aF4.9937989473342892
asS'version'
p15
F2
sS'rounds'
p16
I10000
sS'last_timing'
p17
(F4.9937989473342892
F4.9989399909973145
F0.005141043663024902
tp18
sbsS'PythonFunctionCalls'
p19
(iCalls
PythonFunctionCalls
p20
(dp21
g8
I55
sg9
(lp22
F0.005004596710205078
aF0.010003840923309327
aF0.0050037384033203127
aF0.01000373363494873
aF0.0050038456916809086
aF0.010003697872161866
aF0.0050039887428283691
aF0.010004246234893798
aF0.0050039887428283691
aF0.010003745555877686
aF0.0050037980079650881
aF0.014804637432098389
aF0.01000368595123291
aF0.0050038337707519528
aF0.010003697872161866
aF0.0050038933753967282
aF0.010004043579101562
aF0.0050037384033203127
aF0.01000368595123291
aF0.0050037860870361332
asg11
I20
sg12
I10
sg13
(lp23
F4.1947962760925295
aF4.1940073490142824
aF4.2939903259277346
aF4.3944823265075685
aF4.3986494064331056
aF4.3974871158599855
aF4.395042133331299
aF4.3929471492767336
aF4.2936512947082521
aF4.1925262928009035
asg15
F2
sg16
I6000
sg17
(F4.1925262928009035
F4.1975300312042236
F0.0050037384033203127
tp24
sbsS'CompareFloatsIntegers'
p25
(iNumbers
CompareFloatsIntegers
p26
(dp27
g8
I150
sg9
(lp28
F0.010008597373962402
aF0.0050086379051208496
aF0.01000899076461792
aF0.010008740425109863
aF0.0050085902214050291
aF0.010008633136749268
aF0.005008494853973389
aF0.010008692741394043
aF0.0050086379051208496
aF0.010008597373962402
aF0.005008697509765625
aF0.0100089430809021
aF0.005008494853973389
aF0.010008549690246582
aF0.014809298515319824
aF0.005008494853973389
aF0.010008835792541504
aF0.005008494853973389
aF0.010008692741394043
aF0.0050085902214050291
asg11
I20
sg12
I10
sg13
(lp29
F3.8947264790534972
aF4.392309391498566
aF4.0940153241157535
aF4.2963015675544742
aF4.1962926030159
aF4.1962945103645328
aF4.3923315644264225
aF4.2962965607643131
aF3.7946853280067443
aF4.196313583850861
asg15
F2
sg16
I6000
sg17
(F4.196313583850861
F4.201322078704834
F0.005008494853973389
tp30
sbsS'PythonMethodCalls'
p31
(iCalls
PythonMethodCalls
p32
(dp33
g8
I75
sg9
(lp34
F0.00010563135147094727
aF0.0099058389663696286
aF0.00010473728179931641
aF0.0049057364463806156
aF0.00010474920272827149
aF0.0099056482315063484
aF0.0099058985710144039
aF0.00010474920272827149
aF0.004905796051025391
aF0.00010473728179931641
aF0.0099059462547302253
aF0.0001046895980834961
aF0.004905796051025391
aF0.00010474920272827149
aF0.0099058508872985843
aF0.00010474920272827149
aF0.0049058914184570311
aF0.00010473728179931641
aF0.0099058866500854499
aF0.0049057364463806156
asg11
I20
sg12
I10
sg13
(lp35
F5.4994632959365841
aF5.3011302709579464
aF5.3004443407058712
aF5.3014662027359005
aF5.3982052564620968
aF5.3971862554550167
aF5.2998072862625119
aF5.3009481191635128
aF5.4020373582839962
aF5.3011712789535519
asg15
F2
sg16
I3000
sg17
(F5.3011712789535519
F5.3012759685516357
F0.0001046895980834961
tp36
sbsS'NestedListComprehensions'
p37
(iLists
NestedListComprehensions
p38
(dp39
g8
I6
sg9
(lp40
F6.8140029907226565e-05
aF6.7746639251708979e-05
aF0.0048688411712646488
aF6.7794322967529302e-05
aF0.0098688483238220208
aF6.7794322967529302e-05
aF6.7794322967529302e-05
aF0.0048689365386962889
aF6.7734718322753912e-05
aF6.7794322967529302e-05
aF0.0098687887191772454
aF6.7782402038574221e-05
aF6.7746639251708979e-05
aF0.0048689007759094242
aF6.7746639251708979e-05
aF6.7734718322753912e-05
aF0.0098693370819091797
aF6.7794322967529302e-05
aF6.7734718322753912e-05
aF0.0048687934875488283
asg11
I20
sg12
I10
sg13
(lp41
F4.8014971971511837
aF4.7019073724746701
aF4.7009801626205441
aF4.8975701093673703
aF4.8974163293838497
aF4.6994952917098995
aF4.7001242399215695
aF4.699482178688049
aF4.7018291711807247
aF4.7963270902633663
asg15
F2
sg16
I2000
sg17
(F4.7963270902633663
F4.7963948249816895
F6.7734718322753912e-05
tp42
sbsS'SecondSubmoduleImport'
p43
(iImports
SecondSubmoduleImport
p44
(dp45
g8
I25
sg9
(lp46
F0.0099353909492492683
aF0.004935050010681152
aF0.00013399124145507812
aF0.0099352955818176273
aF0.0049350976943969725
aF0.00013403892517089845
aF0.0099350929260253913
aF0.004935145378112793
aF0.00013405084609985352
aF0.0099350929260253913
aF0.0049350857734680176
aF0.0099349856376647946
aF0.00013409852981567384
aF0.0049350857734680176
aF0.0099350929260253913
aF0.00013403892517089845
aF0.0049350857734680176
aF0.0099352002143859863
aF0.00013400316238403319
aF0.0099351406097412109
asg11
I20
sg12
I10
sg13
(lp47
F7.8007659912109375
aF7.6003592014312744
aF7.6978139877319336
aF7.9014410972595215
aF7.7997720241546631
aF7.5987899303436279
aF7.9001600742340088
aF7.601294994354248
aF7.5990729331970215
aF7.6990730762481689
asg15
F2
sg16
I4000
sg17
(F7.6990730762481689
F7.699207067489624
F0.00013399124145507812
tp48
sbsS'DictWithIntegerKeys'
p49
(iDict
DictWithIntegerKeys
p50
(dp51
g8
I60
sg9
(lp52
F0.025089240074157713
aF0.029889440536499022
aF0.025088191032409668
aF0.020088899135589599
aF0.029889500141143797
aF0.025088393688201906
aF0.029889547824859621
aF0.020088338851928712
aF0.034889185428619386
aF0.020088744163513184
aF0.029889345169067383
aF0.025088393688201906
aF0.029889893531799317
aF0.020088744163513184
aF0.025088393688201906
aF0.029889738559722899
aF0.025088894367218017
aF0.029889738559722899
aF0.020088446140289307
aF0.029889535903930665
asg11
I20
sg12
I10
sg13
(lp53
F4.0775965213775631
aF3.8807044982910157
aF3.881120777130127
aF3.980591630935669
aF3.8809016704559327
aF3.9804404735565186
aF4.0768946170806881
aF3.8812306880950929
aF3.9802275657653809
aF3.8810316085815431
asg15
F2
sg16
I20000
sg17
(F3.8810316085815431
F3.9011199474334717
F0.020088338851928712
tp54
sbsS'UnicodeSlicing'
p55
(iUnicode
UnicodeSlicing
p56
(dp57
g8
I35
sg9
(lp58
F0.015126347541809082
aF0.019923841953277587
aF0.024922585487365721
aF0.015121936798095703
aF0.024923145771026611
aF0.015122139453887939
aF0.01992288827896118
aF0.024923491477966308
aF0.015121448040008544
aF0.01992288827896118
aF0.024922740459442139
aF0.015121936798095703
aF0.019922840595245361
aF0.020121383666992187
aF0.019922292232513426
aF0.024936091899871827
aF0.015123093128204345
aF0.019924235343933106
aF0.02492203712463379
aF0.015121245384216308
asg11
I20
sg12
I10
sg13
(lp59
F4.9852287530899044
aF4.9853489160537716
aF4.9831428289413449
aF5.0845556020736691
aF4.9863848447799679
aF4.7858097314834591
aF4.8835265398025509
aF4.9882018327713009
aF4.8858246564865109
aF4.9843706846237179
asg15
F2
sg16
I14000
sg17
(F4.9843706846237179
F4.9994919300079346
F0.015121245384216308
tp60
sbsS'NestedForLoops'
p61
(iConstructs
NestedForLoops
p62
(dp63
g8
I50000
sg9
(lp64
F0.0098362445831298821
aF2.0086765289306641e-05
aF2.0039081573486327e-05
aF2.0039081573486327e-05
aF2.0039081573486327e-05
aF2.0039081573486327e-05
aF2.0051002502441405e-05
aF2.0098686218261718e-05
aF0.0048211455345153805
aF2.0396709442138671e-05
aF1.9991397857666014e-05
aF1.9991397857666014e-05
aF1.9943714141845704e-05
aF1.9991397857666014e-05
aF1.9991397857666014e-05
aF1.9991397857666014e-05
aF1.9991397857666014e-05
aF0.0098210334777832035
aF2.0039081573486327e-05
aF1.9991397857666014e-05
asg11
I20
sg12
I10
sg13
(lp65
F4.098632895946503
aF3.9012599825859069
aF3.9016190409660338
aF3.9015510916709899
aF4.1000162005424503
aF4.0015722155570987
aF4.0977209448814396
aF3.902001941204071
aF4.0999599337577823
aF4.0018299460411075
asg15
F2
sg16
I30
sg17
(F4.0018299460411075
F4.001849889755249
F1.9943714141845704e-05
tp66
sbsS'UnicodePredicates'
p67
(iUnicode
UnicodePredicates
p68
(dp69
g8
I45
sg9
(lp70
F0.095029032230377203
aF0.1000245451927185
aF0.10483129024505615
aF0.10002413988113404
aF0.1000178337097168
aF0.10002384185791016
aF0.095012843608856201
aF0.10001858472824096
aF0.10001744031906128
aF0.10002919435501098
aF0.10483113527297974
aF0.10002363920211792
aF0.095021688938140864
aF0.10002110004425049
aF0.10002764463424682
aF0.095021593570709231
aF0.10001379251480103
aF0.1000131368637085
aF0.10000579357147217
aF0.095006501674652105
asg11
I20
sg12
I10
sg13
(lp71
F3.8046245217323302
aF3.904160463809967
aF3.8046235680580138
aF3.9046225190162658
aF3.804539406299591
aF3.9042605996131896
aF3.9051446557044982
aF3.90432950258255
aF3.8046953320503234
aF3.9042036175727843
asg15
F2
sg16
I12000
sg17
(F3.9042036175727843
F3.9992101192474365
F0.095006501674652105
tp72
sbsS'ForLoops'
p73
(iConstructs
ForLoops
p74
(dp75
g8
I25
sg9
(lp76
F5.7840347290039061e-05
aF5.4991245269775392e-05
aF0.0048561453819274906
aF5.4848194122314456e-05
aF5.4788589477539065e-05
aF0.009855997562408448
aF5.4800510406494139e-05
aF5.4788589477539065e-05
aF5.4740905761718749e-05
aF0.0098562359809875495
aF5.4740905761718749e-05
aF5.4836273193359375e-05
aF0.0048555850982666014
aF5.4848194122314456e-05
aF5.4800510406494139e-05
aF5.4788589477539065e-05
aF0.0098563909530639641
aF5.4740905761718749e-05
aF5.4740905761718749e-05
aF0.0048560380935668947
asg11
I20
sg12
I10
sg13
(lp77
F3.2008281707763673
aF3.1982871055603028
aF3.1983111858367921
aF3.1982072353363038
aF3.1983192920684815
aF3.1022482872009278
aF3.0023282527923585
aF3.1982131958007813
aF3.19818434715271
aF3.1982313156127931
asg15
F2
sg16
I1000
sg17
(F3.1982313156127931
F3.1982860565185547
F5.4740905761718749e-05
tp78
sbsS'ConcatStrings'
p79
(iStrings
ConcatStrings
p80
(dp81
g8
I50
sg9
(lp82
F0.015022051334381104
aF0.015021097660064698
aF0.015020942687988282
aF0.015021038055419923
aF0.020031392574310303
aF0.015021586418151855
aF0.015021133422851562
aF0.01982189416885376
aF0.015021741390228271
aF0.01502089500427246
aF0.015021049976348877
aF0.015021097660064698
aF0.015020835399627685
aF0.015021038055419923
aF0.015020942687988282
aF0.015021097660064698
aF0.024821889400482178
aF0.015021347999572754
aF0.015021145343780518
aF0.015021193027496337
asg11
I20
sg12
I10
sg13
(lp83
F7.0834450840950014
aF7.1835322499275209
aF7.1827411770820619
aF7.0837192654609682
aF6.9867611050605776
aF7.2837140679359438
aF7.0865972161293032
aF7.0877740502357485
aF7.0863392472267153
aF8.0841932415962212
asg15
F2
sg16
I10000
sg17
(F8.0841932415962212
F8.0992140769958496
F0.015020835399627685
tp84
sbsS'SecondPackageImport'
p85
(iImports
SecondPackageImport
p86
(dp87
g8
I25
sg9
(lp88
F0.0099394440650939948
aF0.004939150810241699
aF0.00013799667358398436
aF0.0099390506744384769
aF0.0049391984939575195
aF0.0001379847526550293
aF0.0099390864372253425
aF0.0049391388893127441
aF0.0099393844604492194
aF0.00013809204101562501
aF0.0049391865730285646
aF0.0099390864372253425
aF0.00013799667358398436
aF0.0049389839172363278
aF0.0099389910697937015
aF0.00013804435729980469
aF0.0049391388893127441
aF0.0099391341209411621
aF0.0049393415451049801
aF0.00013793706893920897
asg11
I20
sg12
I10
sg13
(lp89
F5.8994809269905089
aF5.8983021855354307
aF5.8992200970649717
aF5.9994011998176573
aF5.900417912006378
aF5.9020849347114561
aF5.902958023548126
aF6.0993531823158262
aF5.8987551808357237
aF5.8986359715461729
asg15
F2
sg16
I4000
sg17
(F5.8986359715461729
F5.8987739086151123
F0.00013793706893920897
tp90
sbsS'CompareIntegers'
p91
(iNumbers
CompareIntegers
p92
(dp93
g8
I150
sg9
(lp94
F0.015009832382202149
aF0.015011048316955567
aF0.015009891986846925
aF0.015009689331054687
aF0.02000974416732788
aF0.015009748935699462
aF0.015009844303131103
aF0.015009832382202149
aF0.015010094642639161
aF0.015009689331054687
aF0.019810688495635987
aF0.015009784698486328
aF0.015009844303131103
aF0.015009701251983643
aF0.015009593963623048
aF0.015009737014770508
aF0.015009891986846925
aF0.015009784698486328
aF0.0200097918510437
aF0.015010046958923339
asg11
I20
sg12
I10
sg13
(lp95
F4.0849555015563963
aF3.8880334377288817
aF4.084647226333618
aF4.0845692634582518
aF4.0843985557556151
aF4.0843835353851317
aF3.988303232192993
aF3.9844403743743895
aF4.0847201824188231
aF4.0845385074615477
asg15
F2
sg16
I12000
sg17
(F4.0845385074615477
F4.0995481014251709
F0.015009593963623048
tp96
sbsS'CreateStringsWithConcat'
p97
(iStrings
CreateStringsWithConcat
p98
(dp99
g8
I50
sg9
(lp100
F0.029894793033599855
aF0.020093202590942383
aF0.029894793033599855
aF0.025093340873718263
aF0.029894435405731203
aF0.025093400478363038
aF0.029895043373107909
aF0.020093238353729247
aF0.02989434003829956
aF0.025093543529510497
aF0.029894149303436278
aF0.025093543529510497
aF0.029894447326660155
aF0.020093691349029542
aF0.029894590377807617
aF0.025093591213226317
aF0.029894149303436278
aF0.020093584060668947
aF0.029906344413757325
aF0.025093388557434083
asg11
I20
sg12
I10
sg13
(lp101
F4.3800969123840332
aF4.182499885559082
aF4.1824047565460205
aF4.3797428607940674
aF4.3797659873962402
aF4.3798367977142334
aF4.3782567977905273
aF4.3793857097625732
aF4.183809757232666
aF4.2824158668518066
asg15
F2
sg16
I20000
sg17
(F4.2824158668518066
F4.302509069442749
F0.020093202590942383
tp102
sbsS'SmallLists'
p103
(iLists
SmallLists
p104
(dp105
g8
I85
sg9
(lp106
F0.014875590801239014
aF0.0050744891166687013
aF0.010074388980865479
aF0.014875841140747071
aF0.0050744414329528809
aF0.014875447750091553
aF0.010074496269226074
aF0.0050743818283081055
aF0.014875590801239014
aF0.010074543952941894
aF0.0050743937492370604
aF0.019875550270080568
aF0.0050744414329528809
aF0.014876043796539307
aF0.010074543952941894
aF0.0050742983818054203
aF0.014875447750091553
aF0.010074436664581299
aF0.014875340461730956
aF0.0050744414329528809
asg11
I20
sg12
I10
sg13
(lp107
F4.1954586148262027
aF4.0969895958900455
aF4.0972766518592838
aF4.2927817940711979
aF4.0967115998268131
aF4.2934846520423893
aF4.0960237622261051
aF4.0979506611824039
aF4.0951497197151188
aF4.0931436657905582
asg15
F2
sg16
I8000
sg17
(F4.0931436657905582
F4.0982179641723633
F0.0050742983818054203
tp108
sbsS'CompareUnicode'
p109
(iUnicode
CompareUnicode
p110
(dp111
g8
I50
sg9
(lp112
F0.015152895450592041
aF0.019952189922332764
aF0.02495208978652954
aF0.019952440261840822
aF0.01515103578567505
aF0.02495204210281372
aF0.024951446056365966
aF0.019952499866485597
aF0.024952197074890138
aF0.015150845050811768
aF0.019952142238616945
aF0.024952149391174315
aF0.019952142238616945
aF0.015151190757751464
aF0.024952185153961182
aF0.019951999187469482
aF0.024951803684234618
aF0.015150845050811768
aF0.024951839447021486
aF0.01995224952697754
asg11
I20
sg12
I10
sg13
(lp113
F3.8844510912895203
aF3.7883910536766052
aF3.8843662142753601
aF3.8843922019004822
aF3.9845752120018005
aF3.8843490481376648
aF3.9854130148887634
aF3.7883853316307068
aF3.8845400214195251
aF3.9872280955314636
asg15
F2
sg16
I15000
sg17
(F3.9872280955314636
F4.0023789405822754
F0.015150845050811768
tp114
sbsS'SimpleListManipulation'
p115
(iLists
SimpleListManipulation
p116
(dp117
g8
I90
sg9
(lp118
F0.01505354642868042
aF0.019854891300201415
aF0.015053796768188476
aF0.015053689479827881
aF0.015053582191467286
aF0.024867141246795656
aF0.015053844451904297
aF0.015053701400756837
aF0.019854545593261719
aF0.015053784847259522
aF0.0150537371635437
aF0.02005358934402466
aF0.019855237007141112
aF0.0150537371635437
aF0.015053784847259522
aF0.024855041503906251
aF0.015053689479827881
aF0.015054047107696533
aF0.015053641796112061
aF0.019855237007141112
asg11
I20
sg12
I10
sg13
(lp119
F3.1831714749336242
aF2.9875013470649718
aF2.9875845551490783
aF3.1834795117378234
aF3.0843562722206115
aF2.9843573212623595
aF2.9873692631721496
aF3.0834464669227599
aF3.1836514115333556
aF3.1833743691444396
asg15
F2
sg16
I13000
sg17
(F3.1833743691444396
F3.1984279155731201
F0.01505354642868042
tp120
sbsS'DictWithFloatKeys'
p121
(iDict
DictWithFloatKeys
p122
(dp123
g8
I60
sg9
(lp124
F0.015127742290496826
aF0.024927890300750731
aF0.019928741455078124
aF0.015127742290496826
aF0.024929893016815186
aF0.015127253532409669
aF0.019928300380706788
aF0.024928295612335206
aF0.015127038955688477
aF0.02492799758911133
aF0.019928336143493652
aF0.015127086639404297
aF0.024928092956542969
aF0.019928288459777833
aF0.015127146244049072
aF0.024928200244903564
aF0.019927847385406493
aF0.015126836299896241
aF0.024928140640258788
aF0.01992819309234619
asg11
I20
sg12
I10
sg13
(lp125
F4.3846891999244688
aF4.3844402909278868
aF4.384706127643585
aF4.3841372609138487
aF4.384842264652252
aF4.3841980576515196
aF4.1881590962409971
aF4.3842991471290587
aF4.1882630467414854
aF4.3844581723213194
asg15
F2
sg16
I15000
sg17
(F4.3844581723213194
F4.3995850086212158
F0.015126836299896241
tp126
sbsS'CreateNewInstances'
p127
(iNewInstances
CreateNewInstances
p128
(dp129
g8
I14
sg9
(lp130
F0.014907240867614746
aF0.0050987005233764648
aF0.014901447296142577
aF0.010103893280029298
aF0.014908397197723388
aF0.0051114439964294435
aF0.014917492866516113
aF0.014923250675201416
aF0.010125648975372315
aF0.014929187297821046
aF0.014932799339294433
aF0.010135650634765625
aF0.014939284324645996
aF0.014941895008087158
aF0.0051437377929687503
aF0.014946794509887696
aF0.014951395988464355
aF0.014955842494964599
aF0.014958238601684571
aF0.010159087181091309
asg11
I20
sg12
I10
sg13
(lp131
F4.4952312707901001
aF4.5950723886489868
aF4.5946832895278931
aF4.5943683385848999
aF4.5935853719711304
aF4.6944583654403687
aF4.4978863000869751
aF4.4970632791519165
aF4.4957152605056763
aF4.49449622631073
asg15
F2
sg16
I6000
sg17
(F4.49449622631073
F4.4995949268341064
F0.0050987005233764648
tp132
sbsS'TryExcept'
p133
(iExceptions
TryExcept
p134
(dp135
g8
I150
sg9
(lp136
F0.024917483329772949
aF0.019916892051696777
aF0.015115785598754882
aF0.024917089939117433
aF0.015115892887115479
aF0.01991703510284424
aF0.024916899204254151
aF0.015115642547607422
aF0.024917244911193848
aF0.015115797519683838
aF0.019917142391204835
aF0.015115785598754882
aF0.024916887283325195
aF0.019942140579223631
aF0.015116345882415772
aF0.024916791915893556
aF0.019917237758636474
aF0.015117692947387695
aF0.024916934967041015
aF0.015116095542907715
asg11
I20
sg12
I10
sg13
(lp137
F3.0868083000183106
aF3.1831294059753419
aF3.3834103107452393
aF2.887273406982422
aF2.9861365318298341
aF3.3814702987670899
aF2.8842533588409425
aF2.8842583656311036
aF2.6882253646850587
aF2.8844345569610597
asg15
F2
sg16
I15000
sg17
(F2.8844345569610597
F2.899550199508667
F0.015115642547607422
tp138
sbsS'ComplexPythonFunctionCalls'
p139
(iCalls
ComplexPythonFunctionCalls
p140
(dp141
g8
I20
sg9
(lp142
F0.014944648742675782
aF0.010142302513122559
aF0.014943242073059082
aF0.014943301677703857
aF0.014943397045135498
aF0.0051418423652648928
aF0.01494288444519043
aF0.014942896366119385
aF0.01494283676147461
aF0.010141694545745849
aF0.01494283676147461
aF0.014943039417266846
aF0.010142385959625244
aF0.014942741394042969
aF0.01494283676147461
aF0.014943242073059082
aF0.0051419019699096681
aF0.014942991733551025
aF0.0149430513381958
aF0.014943504333496093
asg11
I20
sg12
I10
sg13
(lp143
F4.5971931338310243
aF4.7931641459465029
aF4.6968511462211611
aF4.6967152476310732
aF4.7927030444145204
aF4.696325194835663
aF4.6959232211112978
aF4.8920000910758974
aF4.8929590106010439
aF4.7927931666374208
asg15
F2
sg16
I10000
sg17
(F4.7927931666374208
F4.7979350090026855
F0.0051418423652648928
tp144
sbsS'TryRaiseExcept'
p145
(iExceptions
TryRaiseExcept
p146
(dp147
g8
I8
sg9
(lp148
F0.0050750494003295897
aF0.014875543117523194
aF0.010074293613433838
aF0.0050744891166687013
aF0.014875543117523194
aF0.010074341297149658
aF0.0050750851631164553
aF0.0050744891166687013
aF0.010074794292449951
aF0.014875841140747071
aF0.0050743460655212399
aF0.010074281692504882
aF0.014875698089599609
aF0.0050743937492370604
aF0.014875447750091553
aF0.010074591636657715
aF0.0050743937492370604
aF0.019875931739807128
aF0.0050743937492370604
aF0.014875292778015137
asg11
I20
sg12
I10
sg13
(lp149
F5.294109737873077
aF5.2942475438117977
aF5.295149481296539
aF5.1969918370246884
aF5.097759640216827
aF5.09668675661087
aF5.2960027813911434
aF5.2937835812568661
aF5.294271624088287
aF5.2952148079872128
asg15
F2
sg16
I8000
sg17
(F5.2952148079872128
F5.3002891540527344
F0.0050743460655212399
tp150
sbsS'IfThenElse'
p151
(iConstructs
IfThenElse
p152
(dp153
g8
I90
sg9
(lp154
F0.01512364149093628
aF0.0249242901802063
aF0.019924187660217287
aF0.015123295783996581
aF0.024924302101135255
aF0.015123140811920167
aF0.019924795627593993
aF0.024924385547637939
aF0.015123140811920167
aF0.024924588203430176
aF0.019924139976501463
aF0.015123248100280762
aF0.024924182891845705
aF0.01512364149093628
aF0.019924497604370116
aF0.024924147129058837
aF0.015123438835144044
aF0.019924342632293701
aF0.024924433231353758
aF0.015123045444488526
asg11
I20
sg12
I10
sg13
(lp155
F3.1833339571952819
aF2.9860089659690856
aF2.9863119959831237
aF3.1828058600425719
aF2.9868460536003112
aF3.1833330035209655
aF3.1820169329643249
aF2.9867719054222106
aF3.0870848536491393
aF3.182831847667694
asg15
F2
sg16
I15000
sg17
(F3.182831847667694
F3.1979548931121826
F0.015123045444488526
tp156
sbsS'NormalInstanceAttribute'
p157
(iLookups
NormalInstanceAttribute
p158
(dp159
g8
I120
sg9
(lp160
F0.014957594871520995
aF0.014957296848297118
aF0.014957046508789063
aF0.010156035423278809
aF0.014957189559936523
aF0.014957249164581299
aF0.01495734453201294
aF0.014956986904144287
aF0.0051561355590820316
aF0.014957642555236817
aF0.014957094192504882
aF0.014957249164581299
aF0.014957201480865479
aF0.010156691074371338
aF0.014956796169281006
aF0.014957499504089356
aF0.0149588942527771
aF0.014957034587860107
aF0.010156142711639404
aF0.014957094192504882
asg11
I20
sg12
I10
sg13
(lp161
F3.6949247360229491
aF3.6949528694152831
aF3.4982828140258788
aF3.6949500083923339
aF3.6943139076232909
aF3.6946088314056396
aF3.5944599151611327
aF3.5954429149627685
aF3.5944377422332763
aF3.6946269512176513
asg15
F2
sg16
I10000
sg17
(F3.6946269512176513
F3.6997830867767334
F0.0051561355590820316
tp162
sbsS'BuiltinFunctionCalls'
p163
(iCalls
BuiltinFunctionCalls
p164
(dp165
g8
I85
sg9
(lp166
F0.010009396076202392
aF0.0050086855888366701
aF0.010008645057678223
aF0.0050088405609130856
aF0.010008895397186279
aF0.0050086855888366701
aF0.010008585453033448
aF0.0050090432167053224
aF0.010008835792541504
aF0.0050087451934814455
aF0.010008895397186279
aF0.005008983612060547
aF0.010008740425109863
aF0.005008697509765625
aF0.010008645057678223
aF0.014809751510620117
aF0.0050088882446289061
aF0.010008692741394043
aF0.0050089359283447266
aF0.010009086132049561
asg11
I20
sg12
I10
sg13
(lp167
F5.0926613926887514
aF4.7949223637580873
aF4.6978364109992983
aF4.7961223244667055
aF4.8970153450965883
aF4.8956632733345034
aF4.8957803368568422
aF4.79673148393631
aF4.7949993729591371
aF4.8944614052772524
asg15
F2
sg16
I6000
sg17
(F4.8944614052772524
F4.8994700908660889
F0.0050086855888366701
tp168
sbsS'UnicodeMappings'
p169
(iUnicode
UnicodeMappings
p170
(dp171
g8
I36
sg9
(lp172
F0.019986736774444579
aF0.024976944923400878
aF0.01998004913330078
aF0.024979090690612792
aF0.019978594779968262
aF0.015177536010742187
aF0.024978935718536377
aF0.024978888034820557
aF0.019979798793792726
aF0.02498040199279785
aF0.019981300830841063
aF0.02497924566268921
aF0.019979000091552734
aF0.024978649616241456
aF0.019982051849365235
aF0.020176744461059569
aF0.019977188110351561
aF0.024977886676788331
aF0.019977438449859618
aF0.024975144863128663
asg11
I20
sg12
I10
sg13
(lp173
F5.4860105037689211
aF5.3857304573059084
aF5.4856614589691164
aF5.5817903995513918
aF5.4858054637908937
aF5.3856396198272707
aF5.3853613853454592
aF5.385837507247925
aF5.485519599914551
aF5.3860804557800295
asg15
F2
sg16
I1000
sg17
(F5.3860804557800295
F5.4012579917907715
F0.015177536010742187
tp174
sbsS'CompareFloats'
p175
(iNumbers
CompareFloats
p176
(dp177
g8
I150
sg9
(lp178
F0.014881682395935059
aF0.010080289840698243
aF0.014881348609924317
aF0.010080194473266602
aF0.0050801873207092282
aF0.014881491661071777
aF0.010080444812774658
aF0.014882242679595948
aF0.0050804018974304199
aF0.014881443977355958
aF0.010080289840698243
aF0.0050804376602172855
aF0.014881432056427002
aF0.010080492496490479
aF0.01488124132156372
aF0.0050803422927856445
aF0.010080492496490479
aF0.0148811936378479
aF0.0050799489021301266
aF0.014881300926208495
asg11
I20
sg12
I10
sg13
(lp179
F3.7944441199302674
aF3.7972300410270692
aF3.8934781908988954
aF3.8932609915733338
aF3.7972269415855409
aF3.9932711482048036
aF3.7953369975090028
aF3.893259084224701
aF3.8932612299919129
aF3.9932411074638368
asg15
F2
sg16
I8000
sg17
(F3.9932411074638368
F3.9983210563659668
F0.0050799489021301266
tp180
sbsS'StringMappings'
p181
(iStrings
StringMappings
p182
(dp183
g8
I36
sg9
(lp184
F0.014953839778900146
aF0.014945089817047119
aF0.0051436901092529299
aF0.014945089817047119
aF0.014945542812347412
aF0.014950752258300781
aF0.01015174388885498
aF0.014952445030212402
aF0.014948999881744385
aF0.014953291416168213
aF0.0051492929458618166
aF0.014952385425567627
aF0.014949333667755128
aF0.014950895309448242
aF0.01014944314956665
aF0.0149527907371521
aF0.014950990676879883
aF0.014951491355895996
aF0.010149741172790527
aF0.014953243732452392
asg11
I20
sg12
I10
sg13
(lp185
F3.4935683727264406
aF3.397441339492798
aF3.4967531681060793
aF3.4939553260803224
aF3.4947392463684084
aF3.3937541961669924
aF3.4937114238739015
aF3.4937552928924562
aF3.495623302459717
aF3.297665309906006
asg15
F2
sg16
I7000
sg17
(F3.297665309906006
F3.3028090000152588
F0.0051436901092529299
tp186
sbsS'TryFinally'
p187
(iWith
TryFinally
p188
(dp189
g8
I20
sg9
(lp190
F0.014872944355010987
aF0.010071146488189697
aF0.01487184762954712
aF0.0050711393356323246
aF0.010071086883544921
aF0.014872193336486816
aF0.0050710439682006836
aF0.010071039199829102
aF0.0148720383644104
aF0.0050714373588562015
aF0.010071194171905518
aF0.014871835708618164
aF0.0050709962844848631
aF0.014872348308563233
aF0.010071301460266113
aF0.005070900917053223
aF0.014872193336486816
aF0.010071039199829102
aF0.010071086883544921
aF0.014871597290039062
asg11
I20
sg12
I10
sg13
(lp191
F4.4934230089187626
aF4.3966660737991337
aF4.3969559907913212
aF4.4929070711135868
aF4.5924940347671512
aF4.3964581727981571
aF4.3966470003128055
aF4.3968761205673221
aF4.592808032035828
aF4.3961200952529911
asg15
F2
sg16
I8000
sg17
(F4.3961200952529911
F4.4011909961700439
F0.005070900917053223
tp192
sbsS'Recursion'
p193
(iCalls
Recursion
p194
(dp195
g8
I5
sg9
(lp196
F0.010143935680389404
aF0.014944493770599365
aF0.014943885803222656
aF0.0051437377929687503
aF0.014944541454315185
aF0.014944839477539062
aF0.014944350719451905
aF0.010143435001373291
aF0.014944446086883546
aF0.014944493770599365
aF0.014944291114807129
aF0.010143291950225831
aF0.014944648742675782
aF0.014946281909942627
aF0.014944732189178467
aF0.0051448941230773926
aF0.014944946765899659
aF0.014944446086883546
aF0.010143649578094483
aF0.014946794509887696
asg11
I20
sg12
I10
sg13
(lp197
F5.6941641807556156
aF5.9925822257995609
aF5.8946343898773197
aF5.6955234050750736
aF5.8939792156219486
aF5.7945512771606449
aF5.9945253372192386
aF5.9949842929840091
aF5.8922392368316654
aF5.8944064617156986
asg15
F2
sg16
I10000
sg17
(F5.8944064617156986
F5.899550199508667
F0.0051437377929687503
tp198
sbsS'SimpleLongArithmetic'
p199
(iArithmetic
SimpleLongArithmetic
p200
(dp201
g8
I110
sg9
(lp202
F0.010003340244293214
aF0.0050027966499328613
aF0.010002994537353515
aF0.0050027370452880859
aF0.01000288724899292
aF0.0050027966499328613
aF0.01000274419784546
aF0.010002791881561279
aF0.0050026893615722655
aF0.010002684593200684
aF0.0050027966499328613
aF0.010002791881561279
aF0.0050028443336486818
aF0.010002946853637696
aF0.0050027489662170408
aF0.010002636909484863
aF0.0050026893615722655
aF0.010002899169921874
aF0.0050027966499328613
aF0.01000288724899292
asg11
I20
sg12
I10
sg13
(lp203
F3.3942385196685789
aF3.2932363033294676
aF3.392109441757202
aF3.1958544731140135
aF3.1967914581298826
aF3.1962702751159666
aF3.3925552845001219
aF3.3927624702453612
aF3.1967792987823485
aF3.1958482742309569
asg15
F2
sg16
I6000
sg17
(F3.1958482742309569
F3.2008509635925293
F0.0050026893615722655
tp204
sbsS'SimpleDictManipulation'
p205
(iDict
SimpleDictManipulation
p206
(dp207
g8
I120
sg9
(lp208
F0.019944846630096436
aF0.014944338798522949
aF0.014944744110107423
aF0.0051433444023132324
aF0.014944338798522949
aF0.014944398403167724
aF0.010143399238586426
aF0.014944183826446533
aF0.014944791793823242
aF0.014944136142730713
aF0.0051435470581054684
aF0.014944732189178467
aF0.014944243431091308
aF0.014944291114807129
aF0.01014319658279419
aF0.014944541454315185
aF0.014944398403167724
aF0.010143649578094483
aF0.010143589973449708
aF0.014944088459014893
asg11
I20
sg12
I10
sg13
(lp209
F3.9921897053718567
aF3.7960248589515686
aF3.7948036789894104
aF3.7946634888648987
aF3.7951636910438538
aF3.7963035702705383
aF3.7947397828102112
aF3.794544517993927
aF3.795760452747345
aF3.6958935856819153
asg15
F2
sg16
I10000
sg17
(F3.6958935856819153
F3.7010369300842285
F0.0051433444023132324
tp210
sbsS'WithRaiseExcept'
p211
(iWith
WithRaiseExcept
p212
(dp213
g8
I8
sg9
(lp214
F0.014950597286224365
aF0.014949595928192139
aF0.010148739814758301
aF0.014949595928192139
aF0.014950096607208252
aF0.014949643611907959
aF0.010148739814758301
aF0.014949893951416016
aF0.014949786663055419
aF0.014949893951416016
aF0.0051490426063537601
aF0.014949846267700195
aF0.014949941635131836
aF0.0149497389793396
aF0.0101485013961792
aF0.014949381351470947
aF0.014950144290924072
aF0.014950144290924072
aF0.0051486968994140627
aF0.014949643611907959
asg11
I20
sg12
I10
sg13
(lp215
F9.8946692466735833
aF10.091923189163207
aF9.9938933372497551
aF9.7957553386688225
aF9.9962281703948968
aF9.9923004627227776
aF10.092016410827636
aF9.8954042911529534
aF9.7951392650604241
aF9.7955243110656731
asg15
F2
sg16
I10000
sg17
(F9.7955243110656731
F9.8006730079650879
F0.0051486968994140627
tp216
sbsS'UnicodeProperties'
p217
(iUnicode
UnicodeProperties
p218
(dp219
g8
I40
sg9
(lp220
F0.084985697269439692
aF0.084976744651794431
aF0.084983444213867193
aF0.079975092411041254
aF0.084966993331909185
aF0.084981882572174067
aF0.079982542991638178
aF0.0849761962890625
aF0.084990644454956049
aF0.079975283145904547
aF0.080174148082733154
aF0.079981935024261472
aF0.084975290298461917
aF0.084977638721466062
aF0.079990684986114502
aF0.084982740879058841
aF0.084975147247314448
aF0.079982590675354001
aF0.084982287883758542
aF0.084981346130371088
asg11
I20
sg12
I10
sg13
(lp221
F4.5220909476280209
aF4.6205089449882504
aF4.521987950801849
aF4.4233098387718197
aF4.6197810530662533
aF4.6184838175773617
aF4.4223709464073178
aF4.6187777876853939
aF4.5222049117088314
aF4.6182299017906185
asg15
F2
sg16
I10000
sg17
(F4.6182299017906185
F4.6982049942016602
F0.079975092411041254
tp222
sbsS'SimpleIntFloatArithmetic'
p223
(iArithmetic
SimpleIntFloatArithmetic
p224
(dp225
g8
I110
sg9
(lp226
F0.015013003349304199
aF0.015012848377227783
aF0.015012741088867188
aF0.01501305103302002
aF0.015012896060943604
aF0.015012836456298828
aF0.015012896060943604
aF0.015012693405151368
aF0.015012741088867188
aF0.015012741088867188
aF0.015012645721435547
aF0.015012741088867188
aF0.015012633800506592
aF0.02481389045715332
aF0.01501460075378418
aF0.015013492107391358
aF0.015012836456298828
aF0.015012693405151368
aF0.015012991428375245
aF0.015013086795806884
asg11
I20
sg12
I10
sg13
(lp227
F3.7855483174324034
aF3.7860003590583799
aF3.8817852616310118
aF3.7859054684638975
aF3.7849174618721007
aF3.785235273838043
aF3.7852264523506163
aF3.7856703877449034
aF3.685771334171295
aF3.7862611889839171
asg15
F2
sg16
I12000
sg17
(F3.7862611889839171
F3.8012738227844238
F0.015012633800506592
tp228
sbsS'CreateUnicodeWithConcat'
p229
(iUnicode
CreateUnicodeWithConcat
p230
(dp231
g8
I50
sg9
(lp232
F0.010074496269226074
aF0.014875292778015137
aF0.0050743460655212399
aF0.01487574577331543
aF0.010075247287750244
aF0.0050746917724609373
aF0.014875388145446778
aF0.010074245929718017
aF0.014875292778015137
aF0.0050742506980895998
aF0.010074090957641602
aF0.014875543117523194
aF0.0050742030143737793
aF0.010074245929718017
aF0.014875400066375732
aF0.0050742506980895998
aF0.014875352382659912
aF0.010074400901794433
aF0.0050740480422973629
aF0.019875240325927735
asg11
I20
sg12
I10
sg13
(lp233
F3.6977469682693482
aF3.7926487684249879
aF3.7937919855117799
aF3.5971760511398316
aF3.7941949129104615
aF3.5973579645156861
aF3.7936269998550416
aF3.7935979127883912
aF3.7946438550949098
aF3.7941241025924684
asg15
F2
sg16
I8000
sg17
(F3.7941241025924684
F3.7991981506347656
F0.0050740480422973629
tp234
sbsS'ListSlicing'
p235
(iLists
ListSlicing
p236
(dp237
g8
I175
sg9
(lp238
F0.0098801970481872566
aF7.8701972961425787e-05
aF0.0048796892166137699
aF7.8737735748291016e-05
aF7.8690052032470706e-05
aF0.0098797440528869632
aF7.8642368316650396e-05
aF0.0048796892166137699
aF7.8701972961425787e-05
aF7.8642368316650396e-05
aF0.0098793387413024895
aF7.8034400939941409e-05
aF0.0048793435096740724
aF7.804632186889649e-05
aF7.8034400939941409e-05
aF0.0098793864250183109
aF7.804632186889649e-05
aF0.004879295825958252
aF7.8642368316650396e-05
aF7.8690052032470706e-05
asg11
I20
sg12
I10
sg13
(lp239
F5.0028809785842894
aF5.1981140851974486
aF5.1972340822219847
aF5.0017430067062376
aF5.0014890909194945
aF5.0979098558425902
aF5.00189893245697
aF5.1982609510421751
aF5.0980159521102903
aF5.0014518976211546
asg15
F2
sg16
I80
sg17
(F5.0014518976211546
F5.0015299320220947
F7.8034400939941409e-05
tp240
sbsS'SimpleListComprehensions'
p241
(iLists
SimpleListComprehensions
p242
(dp243
g8
I6
sg9
(lp244
F7.1787834167480474e-05
aF7.1144104003906245e-05
aF0.0048722982406616214
aF7.1191787719726568e-05
aF7.1144104003906245e-05
aF0.0098723530769348148
aF7.1191787719726568e-05
aF0.0048721432685852051
aF7.1191787719726568e-05
aF7.1144104003906245e-05
aF0.009872233867645264
aF7.1191787719726568e-05
aF7.1144104003906245e-05
aF0.0098721861839294427
aF7.1144104003906245e-05
aF0.0048722386360168461
aF7.1239471435546878e-05
aF7.1144104003906245e-05
aF0.0098724365234375
aF7.1191787719726568e-05
asg11
I20
sg12
I10
sg13
(lp245
F4.2005807399749759
aF4.2965308666229252
aF4.0994559764862064
aF4.0998739242553714
aF4.1975099086761478
aF4.099703931808472
aF4.0995308399200443
aF4.0035590171813968
aF4.0993520259857181
aF4.0996419429779056
asg15
F2
sg16
I2000
sg17
(F4.0996419429779056
F4.0997130870819092
F7.1144104003906245e-05
tp246
sbsS'CompareLongs'
p247
(iNumbers
CompareLongs
p248
(dp249
g8
I150
sg9
(lp250
F0.014841794967651367
aF0.010039794445037841
aF0.0050404429435729984
aF0.01004023551940918
aF0.0050399899482727051
aF0.014841139316558838
aF0.01004023551940918
aF0.0050399422645568846
aF0.010039937496185303
aF0.0050402402877807615
aF0.014841246604919433
aF0.010040092468261718
aF0.0050400495529174805
aF0.010040044784545898
aF0.014847946166992188
aF0.0050399422645568846
aF0.010039997100830079
aF0.0050400376319885256
aF0.010040092468261718
aF0.014841187000274658
asg11
I20
sg12
I10
sg13
(lp251
F3.6936471343040465
aF3.3975932478904722
aF3.6928682208061216
aF3.6942930102348326
aF3.5955009341239927
aF3.6941220641136168
aF3.5936059832572935
aF3.4982571482658384
aF3.6940719962120054
aF3.5953321337699888
asg15
F2
sg16
I7000
sg17
(F3.5953321337699888
F3.6003720760345459
F0.0050399422645568846
tp252
sbsS'SimpleIntegerArithmetic'
p253
(iArithmetic
SimpleIntegerArithmetic
p254
(dp255
g8
I110
sg9
(lp256
F0.015013086795806884
aF0.015012836456298828
aF0.015012800693511963
aF0.015012848377227783
aF0.015012800693511963
aF0.024813687801361083
aF0.015012884140014648
aF0.015012943744659423
aF0.015013086795806884
aF0.015012896060943604
aF0.015012848377227783
aF0.015012693405151368
aF0.015012598037719727
aF0.015012693405151368
aF0.015012538433074952
aF0.015012884140014648
aF0.015012848377227783
aF0.015013539791107177
aF0.02481393814086914
aF0.0150132417678833
asg11
I20
sg12
I10
sg13
(lp257
F3.7859024643898009
aF3.7847163319587707
aF3.7855174183845519
aF3.7858805298805236
aF3.7859205842018127
aF3.7857102990150451
aF3.8823384881019591
aF3.8817433953285216
aF3.7852925896644591
aF3.7859944939613341
asg15
F2
sg16
I12000
sg17
(F3.7859944939613341
F3.8010070323944092
F0.015012538433074952
tp258
sbsS'SpecialClassAttribute'
p259
(iLookups
SpecialClassAttribute
p260
(dp261
g8
I120
sg9
(lp262
F0.014953196048736572
aF0.014951789379119873
aF0.010150337219238281
aF0.014954090118408203
aF0.01495128870010376
aF0.014951896667480469
aF0.014952242374420166
aF0.010150694847106933
aF0.014951586723327637
aF0.014951443672180176
aF0.014951539039611817
aF0.0051503539085388187
aF0.014951694011688232
aF0.01495438814163208
aF0.014952099323272705
aF0.010150492191314697
aF0.014951586723327637
aF0.01495208740234375
aF0.014952290058135986
aF0.014952695369720459
asg11
I20
sg12
I10
sg13
(lp263
F4.1925258278846744
aF3.8967375397682189
aF4.0962917447090152
aF4.1924545407295231
aF4.0964114308357242
aF4.0962097287178043
aF4.0967096924781803
aF4.0968236565589908
aF4.2924136757850651
aF4.1926357388496402
asg15
F2
sg16
I10000
sg17
(F4.1926357388496402
F4.1977860927581787
F0.0051503539085388187
tp264
sbsS'SecondImport'
p265
(iImports
SecondImport
p266
(dp267
g8
I25
sg9
(lp268
F0.0049374461174011234
aF0.009937191009521484
aF0.00013608932495117186
aF0.0049371361732482907
aF0.0099370956420898431
aF0.00013610124588012696
aF0.004937291145324707
aF0.009937191009521484
aF0.0049371361732482907
aF0.00013613700866699219
aF0.009937191009521484
aF0.0049373507499694824
aF0.00013608932495117186
aF0.0099371433258056644
aF0.0049370884895324711
aF0.00013608932495117186
aF0.009937191009521484
aF0.0049370408058166506
aF0.00013613700866699219
aF0.0099372506141662594
asg11
I20
sg12
I10
sg13
(lp269
F5.5021539211273192
aF5.3016629695892332
aF5.5002649307250975
aF5.6988108634948729
aF5.5004828453063963
aF5.4998698711395262
aF5.3993371009826658
aF5.398367929458618
aF5.5018938064575194
aF5.4010029315948485
asg15
F2
sg16
I4000
sg17
(F5.4010029315948485
F5.4011390209197998
F0.00013608932495117186
tp270
sbsS'WithFinally'
p271
(iWith
WithFinally
p272
(dp273
g8
I20
sg9
(lp274
F0.014875984191894532
aF0.0050750970840454102
aF0.010074937343597412
aF0.01487579345703125
aF0.0050748944282531742
aF0.014875841140747071
aF0.010074639320373535
aF0.010074937343597412
aF0.014875984191894532
aF0.0050748467445373537
aF0.014875686168670655
aF0.010074889659881592
aF0.0050747394561767578
aF0.014875888824462891
aF0.010074794292449951
aF0.0050747394561767578
aF0.014876139163970948
aF0.010074937343597412
aF0.014875996112823486
aF0.0050747990608215332
asg11
I20
sg12
I10
sg13
(lp275
F5.4958643913269043
aF5.3963603973388672
aF5.4970383644104004
aF5.5920181274414062
aF5.5931024551391602
aF5.4961020946502686
aF5.3961131572723389
aF5.5917072296142578
aF5.5926601886749268
aF5.4961142539978027
asg15
F2
sg16
I8000
sg17
(F5.4961142539978027
F5.5011889934539795
F0.0050747394561767578
tp276
sbsS'TupleSlicing'
p277
(iTuples
TupleSlicing
p278
(dp279
g8
I5250
sg9
(lp280
F5.2392482757568359e-05
aF5.145072937011719e-05
aF5.1438808441162109e-05
aF0.0098525881767272949
aF5.13911247253418e-05
aF5.145072937011719e-05
aF5.1438808441162109e-05
aF0.0048524856567382811
aF5.13911247253418e-05
aF5.13911247253418e-05
aF5.13911247253418e-05
aF0.0098525524139404293
aF5.13911247253418e-05
aF5.1438808441162109e-05
aF0.0048525452613830565
aF5.1438808441162109e-05
aF5.13911247253418e-05
aF5.1343441009521483e-05
aF0.009852397441864013
aF5.1295757293701173e-05
asg11
I20
sg12
I10
sg13
(lp281
F3.7997216820716857
aF4.2982797265052799
aF3.8969046711921691
aF3.9002568364143371
aF3.997539722919464
aF3.9985727906227111
aF3.9971565842628478
aF3.9984867215156554
aF3.8991195797920226
aF3.7995295166969298
asg15
F2
sg16
I50
sg17
(F3.7995295166969298
F3.7995808124542236
F5.1295757293701173e-05
tp282
sbsS'SimpleFloatArithmetic'
p283
(iArithmetic
SimpleFloatArithmetic
p284
(dp285
g8
I110
sg9
(lp286
F0.01504279375076294
aF0.015043044090270996
aF0.019843244552612306
aF0.015042698383331299
aF0.015042698383331299
aF0.015042686462402343
aF0.024843645095825196
aF0.01504284143447876
aF0.015042495727539063
aF0.015042781829833984
aF0.01504279375076294
aF0.024843740463256835
aF0.015042638778686524
aF0.015042996406555176
aF0.015042400360107422
aF0.019843697547912598
aF0.01504279375076294
aF0.01504284143447876
aF0.015042686462402343
aF0.015042543411254883
asg11
I20
sg12
I10
sg13
(lp287
F3.5856064796447753
aF3.7837096691131591
aF3.6876265048980712
aF3.6838115692138671
aF3.7837904930114745
aF3.7836896419525146
aF3.6877695560455321
aF3.6862286567687987
aF3.7838765621185302
aF3.7829824924468993
asg15
F2
sg16
I12000
sg17
(F3.7829824924468993
F3.7980248928070068
F0.015042400360107422
tp288
sbsS'StringPredicates'
p289
(iStrings
StringPredicates
p290
(dp291
g8
I70
sg9
(lp292
F0.079976141452789307
aF0.084983992576599124
aF0.084981286525726313
aF0.079985296726226812
aF0.084978294372558591
aF0.084984695911407476
aF0.084977293014526362
aF0.079985702037811274
aF0.084985196590423584
aF0.084985339641571039
aF0.075176537036895752
aF0.084970140457153315
aF0.079985892772674566
aF0.084977638721466062
aF0.084988641738891604
aF0.079985392093658444
aF0.085005342960357666
aF0.084993052482604983
aF0.079985439777374268
aF0.084985649585723883
asg11
I20
sg12
I10
sg13
(lp293
F3.5248286128044128
aF3.5244564414024353
aF3.6246313452720642
aF3.5246433615684509
aF3.525859534740448
aF3.6241886019706726
aF3.5248293280601501
aF3.5247165560722351
aF3.5249125361442566
aF3.6243833899497986
asg15
F2
sg16
I10000
sg17
(F3.6243833899497986
F3.6995599269866943
F0.075176537036895752
tp294
sbsS'BuiltinMethodLookup'
p295
(iLookups
BuiltinMethodLookup
p296
(dp297
g8
I150
sg9
(lp298
F0.010043895244598389
aF0.0050436854362487793
aF0.010043597221374512
aF0.014844894409179688
aF0.0050435900688171383
aF0.010043585300445556
aF0.0050436377525329588
aF0.014845287799835205
aF0.010043489933013915
aF0.0050436973571777342
aF0.010043799877166748
aF0.014844489097595216
aF0.0050437450408935547
aF0.010043752193450928
aF0.0050434350967407228
aF0.010043346881866455
aF0.014845192432403564
aF0.0050436973571777342
aF0.010043501853942871
aF0.0050436019897460941
asg11
I20
sg12
I10
sg13
(lp299
F3.2957614183425905
aF3.3952086687088014
aF3.2954993963241579
aF3.3951426267623903
aF3.4915695905685427
aF3.2951656103134157
aF3.2958825349807741
aF3.3953166723251345
aF3.396118474006653
aF3.2958734750747682
asg15
F2
sg16
I7000
sg17
(F3.2958734750747682
F3.3009169101715088
F0.0050434350967407228
tp300
sbsS'SimpleComplexArithmetic'
p301
(iArithmetic
SimpleComplexArithmetic
p302
(dp303
g8
I110
sg9
(lp304
F0.0050707459449768066
aF0.014871537685394287
aF0.010070395469665528
aF0.0050704002380371092
aF0.014871692657470703
aF0.010070145130157471
aF0.014871692657470703
aF0.0050704956054687502
aF0.010070240497589112
aF0.014871788024902344
aF0.0050702333450317379
aF0.010070300102233887
aF0.014871597290039062
aF0.0050704836845397953
aF0.01007019281387329
aF0.014871895313262939
aF0.0050703883171081543
aF0.014871633052825928
aF0.010070645809173584
aF0.0050704479217529297
asg11
I20
sg12
I10
sg13
(lp305
F3.894915795326233
aF3.8950109243392945
aF3.8950288057327271
aF3.9952409029006959
aF3.8952457666397096
aF3.8950786352157594
aF4.0913448095321652
aF3.8950087785720826
aF3.9950337171554566
aF3.9951727151870728
asg15
F2
sg16
I8000
sg17
(F3.9951727151870728
F4.0002429485321045
F0.0050702333450317379
tp306
sbsS'ConcatUnicode'
p307
(iUnicode
ConcatUnicode
p308
(dp309
g8
I50
sg9
(lp310
F0.010091888904571533
aF0.014894497394561768
aF0.0050898909568786619
aF0.014891493320465087
aF0.010090291500091553
aF0.014891886711120605
aF0.0050907969474792477
aF0.014891445636749268
aF0.01009058952331543
aF0.014891445636749268
aF0.0050903916358947757
aF0.014891993999481202
aF0.010090184211730958
aF0.014891493320465087
aF0.0050905823707580568
aF0.010090494155883789
aF0.014891552925109863
aF0.010091233253479003
aF0.014891397953033448
aF0.0050904393196105954
asg11
I20
sg12
I10
sg13
(lp311
F6.9935680508613585
aF6.6967941403388975
aF6.7940221905708311
aF7.4933560967445372
aF6.9937981247901915
aF6.39661728143692
aF6.8919330716133116
aF6.6933690190315245
aF6.492393124103546
aF6.5941849827766417
asg15
F2
sg16
I6000
sg17
(F6.5941849827766417
F6.5992748737335205
F0.0050898909568786619
tp312
sbsS'CompareInternedStrings'
p313
(iStrings
CompareInternedStrings
p314
(dp315
g8
I50
sg9
(lp316
F0.035048544406890869
aF0.044848787784576419
aF0.040048348903656009
aF0.035047841072082517
aF0.040047597885131833
aF0.044862449169158936
aF0.040048694610595702
aF0.035047984123229979
aF0.040055894851684572
aF0.044850349426269531
aF0.040048098564147948
aF0.035055792331695555
aF0.044849288463592527
aF0.040048086643218996
aF0.035047793388366701
aF0.040055036544799805
aF0.044850087165832518
aF0.040047943592071533
aF0.035047948360443115
aF0.040047693252563479
asg11
I20
sg12
I10
sg13
(lp317
F4.0668501615524288
aF4.262029147148132
aF4.0677022695541378
aF4.1636252164840695
aF4.2637111902236935
aF4.0657391309738156
aF4.1628901720046994
aF4.2632500886917111
aF3.8685033082962037
aF4.2639620065689083
asg15
F2
sg16
I30000
sg17
(F4.2639620065689083
F4.2990097999572754
F0.035047793388366701
tp318
sbsS'CompareStrings'
p319
(iStrings
CompareStrings
p320
(dp321
g8
I50
sg9
(lp322
F0.020108187198638917
aF0.034905791282653809
aF0.020104587078094482
aF0.02990589141845703
aF0.025104737281799315
aF0.029905438423156738
aF0.020104587078094482
aF0.029909646511077879
aF0.029909300804138183
aF0.025104486942291261
aF0.029905593395233153
aF0.025104534626007081
aF0.029905295372009276
aF0.020104253292083742
aF0.029905295372009276
aF0.025104641914367676
aF0.029919242858886717
aF0.025104844570159913
aF0.029905688762664796
aF0.029904997348785399
asg11
I20
sg12
I10
sg13
(lp323
F4.3798295617103573
aF4.5762726426124569
aF4.3797625660896298
aF4.3800577282905575
aF4.3799027562141415
aF4.379894649982452
aF4.3800937294960018
aF4.475982582569122
aF4.3802596688270565
aF4.3797036767005917
asg15
F2
sg16
I20000
sg17
(F4.3797036767005917
F4.3998079299926758
F0.020104253292083742
tp324
sbsS'SmallTuples'
p325
(iTuples
SmallTuples
p326
(dp327
g8
I60
sg9
(lp328
F0.014909946918487548
aF0.010109138488769532
aF0.014909934997558594
aF0.0051086425781250002
aF0.014909887313842773
aF0.010108745098114014
aF0.014909934997558594
aF0.0051086902618408207
aF0.014909791946411132
aF0.019909846782684325
aF0.0051086902618408207
aF0.014909791946411132
aF0.01010894775390625
aF0.014910089969635009
aF0.0051087498664855961
aF0.014909791946411132
aF0.010108745098114014
aF0.014909744262695312
aF0.014909493923187255
aF0.00510934591293335
asg11
I20
sg12
I10
sg13
(lp329
F4.3957921981811525
aF4.5924033641815187
aF4.4933332920074465
aF4.3965143680572512
aF4.4921452522277834
aF4.3942155361175539
aF4.3940693855285646
aF4.3934263706207277
aF4.3955153942108156
aF4.2981643199920656
asg15
F2
sg16
I9000
sg17
(F4.2981643199920656
F4.3032729625701904
F0.0051086425781250002
tp330
sbsS'NormalClassAttribute'
p331
(iLookups
NormalClassAttribute
p332
(dp333
g8
I120
sg9
(lp334
F0.014943146705627441
aF0.010140538215637207
aF0.014941740036010741
aF0.014941298961639404
aF0.0051409482955932619
aF0.014941740036010741
aF0.019941532611846925
aF0.014941740036010741
aF0.0051404356956481932
aF0.014941632747650146
aF0.014941549301147461
aF0.010140490531921387
aF0.014941740036010741
aF0.014941644668579102
aF0.014941799640655517
aF0.0051405906677246095
aF0.014941692352294922
aF0.014941585063934327
aF0.010140442848205566
aF0.014941883087158204
asg11
I20
sg12
I10
sg13
(lp335
F4.3925195813179014
aF4.0948854565620421
aF4.3913105607032774
aF4.1941915631294249
aF4.1941715359687803
aF4.1948875069618223
aF4.2952507615089415
aF4.2939664006233214
aF4.2953017830848692
aF4.0984035611152647
asg15
F2
sg16
I10000
sg17
(F4.0984035611152647
F4.1035439968109131
F0.0051404356956481932
tp336
sbsS'CreateInstances'
p337
(iInstances
CreateInstances
p338
(dp339
g8
I14
sg9
(lp340
F0.014898788928985596
aF0.01009523868560791
aF0.014896440505981445
aF0.0050952434539794922
aF0.014896893501281738
aF0.01009528636932373
aF0.014896190166473389
aF0.0050951957702636717
aF0.014896345138549805
aF0.010095047950744628
aF0.014896786212921143
aF0.0050951838493347168
aF0.014896440505981445
aF0.01009523868560791
aF0.014896440505981445
aF0.010095143318176269
aF0.014896392822265625
aF0.0050955891609191896
aF0.014896297454833984
aF0.010095298290252686
asg11
I20
sg12
I10
sg13
(lp341
F6.0945866703987122
aF5.9930997490882874
aF5.8962936997413635
aF5.896301805973053
aF5.8975899815559387
aF6.091867983341217
aF5.9941509366035461
aF6.0934959053993225
aF5.9978178143501282
aF5.9959419369697571
asg15
F2
sg16
I8000
sg17
(F5.9959419369697571
F6.0010371208190918
F0.0050951838493347168
tp342
sbsS'DictWithStringKeys'
p343
(iDict
DictWithStringKeys
p344
(dp345
g8
I60
sg9
(lp346
F0.025088250637054443
aF0.029889333248138427
aF0.020088338851928712
aF0.029889547824859621
aF0.025088238716125488
aF0.025088191032409668
aF0.029889535903930665
aF0.020088791847229004
aF0.029889738559722899
aF0.025088393688201906
aF0.029889440536499022
aF0.020088791847229004
aF0.034889245033264162
aF0.020088732242584229
aF0.029889392852783202
aF0.025088691711425783
aF0.020088851451873779
aF0.029889547824859621
aF0.025088691711425783
aF0.029889392852783202
asg11
I20
sg12
I10
sg13
(lp347
F3.4809094429016114
aF3.4805296421051026
aF3.4799085617065431
aF3.4804244995117188
aF3.6786578655242921
aF3.5785244464874268
aF3.4805947303771974
aF3.4805465698242188
aF3.5783287048339845
aF3.4802328109741212
asg15
F2
sg16
I20000
sg17
(F3.4802328109741212
F3.5003211498260498
F0.020088338851928712
tp348
sbsS'DictCreation'
p349
(iDict
DictCreation
p350
(dp351
g8
I50
sg9
(lp352
F0.0050749897956848143
aF0.014875483512878419
aF0.010074841976165771
aF0.0050744414329528809
aF0.014875590801239014
aF0.010074794292449951
aF0.014875590801239014
aF0.0050744414329528809
aF0.010074496269226074
aF0.014876091480255127
aF0.005074334144592285
aF0.010074436664581299
aF0.014875543117523194
aF0.0050744414329528809
aF0.014875590801239014
aF0.010074388980865479
aF0.0050744414329528809
aF0.014875495433807373
aF0.010074436664581299
aF0.014877235889434815
asg11
I20
sg12
I10
sg13
(lp353
F3.2936157464981077
aF3.3947338342666624
aF3.394697594642639
aF3.2950035810470579
aF3.2951816797256468
aF3.2948197603225706
aF3.3951396226882933
aF3.3951124429702757
aF3.4913605928421019
aF3.2952546358108519
asg15
F2
sg16
I8000
sg17
(F3.2952546358108519
F3.3003289699554443
F0.005074334144592285
tp354
sbsS'StringSlicing'
p355
(iStrings
StringSlicing
p356
(dp357
g8
I35
sg9
(lp358
F0.024984848499298096
aF0.019982242584228517
aF0.02498173713684082
aF0.019981634616851807
aF0.024981391429901124
aF0.015179896354675293
aF0.019981145858764648
aF0.024982094764709473
aF0.024982142448425292
aF0.01998194456100464
aF0.024982595443725587
aF0.019981133937835693
aF0.024981141090393066
aF0.019981741905212402
aF0.024981892108917235
aF0.019982695579528809
aF0.024982082843780517
aF0.024982237815856935
aF0.015180492401123047
aF0.019981038570404053
asg11
I20
sg12
I10
sg13
(lp359
F3.4839300870895387
aF3.4839071989059449
aF3.4838969469070435
aF3.4836051225662232
aF3.4834539651870728
aF3.2882461309432984
aF3.4855682611465455
aF3.4850101232528687
aF3.4835870027542115
aF3.4836060762405396
asg15
F2
sg16
I16000
sg17
(F3.4836060762405396
F3.4987859725952148
F0.015179896354675293
tp360
sbssS'name'
p361
S'/root/results/with_p27_issdm-6_3.pybench'
p362
sg11
I20
sg12
I10
sS'machine_details'
p363
(dp364
S'platform'
p365
S'Linux-3.13.0-88-generic-x86_64-with'
p366
sS'executable'
p367
S'/usr/local/bin/python'
p368
sS'builddate'
p369
S'Mar 19 2016 01:13:31'
p370
sS'unicode'
p371
S'UCS4'
p372
sS'implementation'
p373
S'CPython'
p374
sS'compiler'
p375
S'GCC 5.3.0'
p376
sS'bits'
p377
S'64bit'
p378
sS'processor'
p379
S''
sS'buildno'
p380
S'default'
p381
sS'python'
p382
S'2.7.11'
p383
ssS'timer'
p384
S'time.time'
p385
sg15
F2
sS'roundtimes'
p386
(lp387
F260.60004429817201
aF259.89734678268434
aF259.90038161277772
aF261.19715480804444
aF261.19872813224794
aF259.89679484367372
aF260.19841437339784
aF260.19847350120546
aF259.00292067527772
aF260.19868807792665
asg16
I10
sS'verbose'
p388
I0
sb.