(i__main__
Benchmark
p1
(dp2
S'tests'
p3
(dp4
S'SpecialInstanceAttribute'
p5
(iLookups
SpecialInstanceAttribute
p6
(dp7
S'operations'
p8
I120
sS'overhead_times'
p9
(lp10
F0.0019631385803222656
aF0.001963639259338379
aF0.0019579410552978517
aF0.0019577503204345702
aF0.0019575834274291994
aF0.0019584894180297852
aF0.0019575834274291994
aF0.0019595980644226073
aF0.001959240436553955
aF0.0019578337669372559
aF0.0019576430320739748
aF0.0019579410552978517
aF0.0019576430320739748
aF0.0019575476646423338
aF0.001958596706390381
aF0.0019577383995056153
aF0.0019577980041503907
aF0.0019578337669372559
aF0.0019580483436584472
aF0.0019576430320739748
asS'calibration_runs'
p11
I20
sS'warp'
p12
I10
sS'times'
p13
(lp14
F0.66707049608230595
aF0.66697345972061162
aF0.66639243364334111
aF0.66649352312088017
aF0.66643964052200322
aF0.66683136224746709
aF0.66712747812271123
aF0.66590462923049931
aF0.66686235666275029
aF0.66717659235000615
asS'version'
p15
F2
sS'rounds'
p16
I10000
sS'last_timing'
p17
(F0.66717659235000615
F0.66913414001464844
F0.0019575476646423338
tp18
sbsS'PythonFunctionCalls'
p19
(iCalls
PythonFunctionCalls
p20
(dp21
g8
I55
sg9
(lp22
F0.0011723995208740234
aF0.0011702418327331544
aF0.0011696934700012207
aF0.0011701464653015136
aF0.0011697888374328613
aF0.0011696934700012207
aF0.0011699438095092774
aF0.0011702418327331544
aF0.0011696934700012207
aF0.0011700868606567382
aF0.0011697888374328613
aF0.0011696934700012207
aF0.0011700510978698731
aF0.0011696457862854005
aF0.0011696934700012207
aF0.0011700987815856934
aF0.0011698007583618164
aF0.0011696457862854005
aF0.0011752486228942872
aF0.0011751890182495118
asg11
I20
sg12
I10
sg13
(lp23
F0.43432239294052122
aF0.43370631933212278
aF0.43400744199752805
aF0.43371347188949583
aF0.43364433050155637
aF0.43369630575180051
aF0.43370155096054075
aF0.43383220434188841
aF0.43282917737960813
aF0.43281439542770384
asg15
F2
sg16
I6000
sg17
(F0.43281439542770384
F0.43398404121398926
F0.0011696457862854005
tp24
sbsS'CompareFloatsIntegers'
p25
(iNumbers
CompareFloatsIntegers
p26
(dp27
g8
I150
sg9
(lp28
F0.0011633515357971191
aF0.0011644840240478515
aF0.0011631965637207032
aF0.0011629462242126465
aF0.0011628389358520508
aF0.0011634469032287599
aF0.001163041591644287
aF0.0011628508567810059
aF0.0011631965637207032
aF0.0011629939079284668
aF0.0011628508567810059
aF0.001163041591644287
aF0.0011629462242126465
aF0.0011628508567810059
aF0.0011631965637207032
aF0.0011628508567810059
aF0.0011628389358520508
aF0.0011650443077087403
aF0.0011629343032836914
aF0.0011628389358520508
asg11
I20
sg12
I10
sg13
(lp29
F1.7798179864883423
aF1.781423020362854
aF1.770380187034607
aF1.7703153371810914
aF1.7759401082992554
aF1.7703882932662964
aF1.7637652635574341
aF1.7633060693740845
aF1.7634813070297242
aF1.7580200910568238
asg15
F2
sg16
I6000
sg17
(F1.7580200910568238
F1.7591829299926758
F0.0011628389358520508
tp30
sbsS'PythonMethodCalls'
p31
(iCalls
PythonMethodCalls
p32
(dp33
g8
I75
sg9
(lp34
F0.0005990386009216309
aF0.00059823989868164058
aF0.00059759616851806641
aF0.00059769153594970705
aF0.00059759616851806641
aF0.00059759616851806641
aF0.00059814453125000004
aF0.00059753656387329102
aF0.00059753656387329102
aF0.00059758424758911128
aF0.00059750080108642576
aF0.00059808492660522465
aF0.00059750080108642576
aF0.00059748888015747075
aF0.00059753656387329102
aF0.00059754848480224614
aF0.00059798955917358401
aF0.00059764385223388668
aF0.00060030221939086912
aF0.00059779882431030271
asg11
I20
sg12
I10
sg13
(lp35
F0.61197756528854375
aF0.59931944608688359
aF0.61193560361862187
aF0.6000685572624207
aF0.5993206381797791
aF0.60720156431198125
aF0.610872495174408
aF0.6118643164634705
aF0.59938834905624394
aF0.59931062459945683
asg15
F2
sg16
I3000
sg17
(F0.59931062459945683
F0.59990811347961426
F0.00059748888015747075
tp36
sbsS'NestedListComprehensions'
p37
(iLists
NestedListComprehensions
p38
(dp39
g8
I6
sg9
(lp40
F0.0003894925117492676
aF0.00038903951644897461
aF0.00038900375366210935
aF0.0003884434700012207
aF0.00038899183273315429
aF0.00038903951644897461
aF0.00038905143737792968
aF0.00038899183273315429
aF0.00038853883743286135
aF0.00038909912109375
aF0.00038955211639404299
aF0.00038909912109375
aF0.0003884434700012207
aF0.00038899183273315429
aF0.00038908720016479493
aF0.00038913488388061526
aF0.00038909912109375
aF0.00038853883743286135
aF0.00038899183273315429
aF0.00039315223693847656
asg11
I20
sg12
I10
sg13
(lp41
F0.5810655951499939
aF0.57680648565292358
aF0.57681268453598022
aF0.57680743932723999
aF0.57856649160385132
aF0.57547372579574585
aF0.57536453008651733
aF0.57528036832809448
aF0.57887953519821167
aF0.58569854497909546
asg15
F2
sg16
I2000
sg17
(F0.58569854497909546
F0.58608698844909668
F0.0003884434700012207
tp42
sbsS'SecondSubmoduleImport'
p43
(iImports
SecondSubmoduleImport
p44
(dp45
g8
I25
sg9
(lp46
F0.0007729411125183105
aF0.00077639818191528316
aF0.00077309608459472654
aF0.00077309608459472654
aF0.00077289342880249023
aF0.00077279806137084959
aF0.00077303647994995115
aF0.00077259540557861328
aF0.00077339410781860349
aF0.00077279806137084959
aF0.00077303647994995115
aF0.00077269077301025393
aF0.00077309608459472654
aF0.0007729411125183105
aF0.00077308416366577153
aF0.00077314376831054692
aF0.00077258348464965816
aF0.00077303647994995115
aF0.00077269077301025393
aF0.00077679157257080076
asg11
I20
sg12
I10
sg13
(lp47
F0.68527139425277706
aF0.682806384563446
aF0.68515456914901729
aF0.68655647039413448
aF0.68431342840194698
aF0.68321360349655147
aF0.68256534337997432
aF0.68211830854415889
aF0.68480623960494991
aF0.68436135053634639
asg15
F2
sg16
I4000
sg17
(F0.68436135053634639
F0.68513393402099609
F0.00077258348464965816
tp48
sbsS'DictWithIntegerKeys'
p49
(iDict
DictWithIntegerKeys
p50
(dp51
g8
I60
sg9
(lp52
F0.0038963913917541503
aF0.0038956284523010256
aF0.0038953781127929687
aF0.0038998246192932127
aF0.0038957834243774415
aF0.0038956761360168456
aF0.003895735740661621
aF0.0038953304290771486
aF0.0038955807685852051
aF0.0038994312286376952
aF0.0039009332656860353
aF0.003896033763885498
aF0.0038952350616455076
aF0.0038992404937744141
aF0.003895735740661621
aF0.0038954377174377441
aF0.0038957834243774415
aF0.0038967847824096678
aF0.0038957834243774415
aF0.0038956284523010256
asg11
I20
sg12
I10
sg13
(lp53
F0.47306780815124511
aF0.4730368137359619
aF0.47315959930419921
aF0.47316389083862304
aF0.47306256294250487
aF0.47306375503540038
aF0.47304563522338866
aF0.4767749786376953
aF0.47670464515686034
aF0.47680358886718749
asg15
F2
sg16
I20000
sg17
(F0.47680358886718749
F0.48069882392883301
F0.0038952350616455076
tp54
sbsS'UnicodeSlicing'
p55
(iUnicode
UnicodeSlicing
p56
(dp57
g8
I35
sg9
(lp58
F0.002907085418701172
aF0.0029036760330200194
aF0.0029034852981567384
aF0.0029034376144409179
aF0.0029091835021972656
aF0.0029117345809936525
aF0.0029054880142211914
aF0.0029037356376647948
aF0.0029035329818725584
aF0.0029095768928527831
aF0.0029039740562438964
aF0.002903473377227783
aF0.0029028773307800291
aF0.002903282642364502
aF0.0029060244560241699
aF0.0029040813446044923
aF0.0029030799865722655
aF0.0029031753540039061
aF0.0029024839401245116
aF0.0029038310050964354
asg11
I20
sg12
I10
sg13
(lp59
F0.44069864749908449
aF0.45250465869903567
aF0.45260455608367922
aF0.45228865146636965
aF0.44377853870391848
aF0.44270756244659426
aF0.45071532726287844
aF0.45279433727264407
aF0.44299461841583254
aF0.45342352390289309
asg15
F2
sg16
I14000
sg17
(F0.45342352390289309
F0.45632600784301758
F0.0029024839401245116
tp60
sbsS'NestedForLoops'
p61
(iConstructs
NestedForLoops
p62
(dp63
g8
I50000
sg9
(lp64
F0.00011379718780517578
aF0.00011185407638549804
aF0.00011163949966430664
aF0.00011159181594848633
aF0.00011224746704101563
aF0.00011168718338012695
aF0.00011163949966430664
aF0.00011168718338012695
aF0.00011224746704101563
aF0.00011163949966430664
aF0.00011179447174072265
aF0.00011165142059326172
aF0.00011219978332519532
aF0.00011160373687744141
aF0.00011169910430908203
aF0.00011168718338012695
aF0.00011204481124877929
aF0.00011168718338012695
aF0.00011163949966430664
aF0.00011169910430908203
asg11
I20
sg12
I10
sg13
(lp65
F0.5167565226554871
aF0.51678942441940312
aF0.51692126989364628
aF0.51674436330795293
aF0.51674746274948125
aF0.51674746274948125
aF0.51681135892868046
aF0.51688836812973027
aF0.51678251028060918
aF0.51673244237899785
asg15
F2
sg16
I30
sg17
(F0.51673244237899785
F0.51684403419494629
F0.00011159181594848633
tp66
sbsS'UnicodePredicates'
p67
(iUnicode
UnicodePredicates
p68
(dp69
g8
I45
sg9
(lp70
F0.010753798484802245
aF0.010744941234588624
aF0.010744941234588624
aF0.010744845867156983
aF0.010743343830108642
aF0.010751891136169433
aF0.010743641853332519
aF0.010747039318084716
aF0.010747146606445313
aF0.010747694969177246
aF0.01074979305267334
aF0.010746395587921143
aF0.010744297504425048
aF0.0107435941696167
aF0.010748195648193359
aF0.010743701457977295
aF0.010745990276336669
aF0.010745096206665038
aF0.010743045806884765
aF0.010751545429229736
asg11
I20
sg12
I10
sg13
(lp71
F0.52087697982788084
aF0.51879701614379881
aF0.51875886917114256
aF0.51893196105957029
aF0.51956806182861326
aF0.51936397552490232
aF0.51903686523437498
aF0.51927504539489744
aF0.51846203804016111
aF0.51903090476989744
asg15
F2
sg16
I12000
sg17
(F0.51903090476989744
F0.52977395057678223
F0.010743045806884765
tp72
sbsS'ForLoops'
p73
(iConstructs
ForLoops
p74
(dp75
g8
I25
sg9
(lp76
F0.00029424428939819338
aF0.00028979778289794922
aF0.0002903461456298828
aF0.00029064416885375975
aF0.00028979778289794922
aF0.00029044151306152345
aF0.00028984546661376954
aF0.00029009580612182617
aF0.00028994083404541013
aF0.00028939247131347655
aF0.00028983354568481447
aF0.00028939247131347655
aF0.00028994083404541013
aF0.00028984546661376954
aF0.00028953552246093752
aF0.00028984546661376954
aF0.00028959512710571291
aF0.0002901434898376465
aF0.00028970241546630857
aF0.00029029846191406248
asg11
I20
sg12
I10
sg13
(lp77
F0.421828556060791
aF0.42180447578430175
aF0.42184476852416991
aF0.42191748619079589
aF0.42175250053405761
aF0.42193560600280761
aF0.42180352210998534
aF0.42177157402038573
aF0.42191367149353026
aF0.42183976173400878
asg15
F2
sg16
I1000
sg17
(F0.42183976173400878
F0.42212915420532227
F0.00028939247131347655
tp78
sbsS'ConcatStrings'
p79
(iStrings
ConcatStrings
p80
(dp81
g8
I50
sg9
(lp82
F0.0022467017173767091
aF0.0022438406944274903
aF0.0022463440895080567
aF0.0022486448287963867
aF0.0022466421127319337
aF0.0022465348243713378
aF0.0022513985633850096
aF0.0022453904151916505
aF0.0022449851036071776
aF0.0022447466850280761
aF0.0022451519966125489
aF0.0022456407546997069
aF0.0022450923919677735
aF0.0022467494010925291
aF0.0022502422332763674
aF0.0022448420524597166
aF0.0022449493408203125
aF0.002244901657104492
aF0.0022451877593994141
aF0.002245044708251953
asg11
I20
sg12
I10
sg13
(lp83
F0.70965329408645628
aF0.71619621515274046
aF0.74714509248733518
aF0.74722210168838499
aF0.74659720659255979
aF0.72321120500564573
aF0.71679130792617796
aF0.74066416025161741
aF0.74719206094741819
aF0.72309724092483518
asg15
F2
sg16
I10000
sg17
(F0.72309724092483518
F0.7253410816192627
F0.0022438406944274903
tp84
sbsS'SecondPackageImport'
p85
(iImports
SecondPackageImport
p86
(dp87
g8
I25
sg9
(lp88
F0.00077309608459472654
aF0.00077319145202636719
aF0.00077264308929443355
aF0.00077289342880249023
aF0.00077254772186279301
aF0.00077309608459472654
aF0.00077419281005859371
aF0.00077444314956665039
aF0.00077444314956665039
aF0.00077279806137084959
aF0.00077298879623413088
aF0.00077264308929443355
aF0.00077334642410278322
aF0.00077264308929443355
aF0.0007729411125183105
aF0.00077284574508666997
aF0.00077275037765502932
aF0.00077303647994995115
aF0.00077264308929443355
aF0.00077295303344726562
asg11
I20
sg12
I10
sg13
(lp89
F0.57089846134185795
aF0.5693334817886353
aF0.57059543132781987
aF0.5708903551101685
aF0.57214729785919194
aF0.57331125736236577
aF0.56951444149017338
aF0.57041161060333256
aF0.57287638187408452
aF0.57038156986236577
asg15
F2
sg16
I4000
sg17
(F0.57038156986236577
F0.57115411758422852
F0.00077254772186279301
tp90
sbsS'CompareIntegers'
p91
(iNumbers
CompareIntegers
p92
(dp93
g8
I150
sg9
(lp94
F0.0023401379585266113
aF0.0023340463638305666
aF0.0023337483406066896
aF0.0023339986801147461
aF0.002334296703338623
aF0.0023336529731750487
aF0.0023339390754699707
aF0.0023338913917541502
aF0.0023335933685302733
aF0.0023343920707702636
aF0.0023366928100585936
aF0.0023351430892944334
aF0.0023337483406066896
aF0.0023339986801147461
aF0.0023339986801147461
aF0.0023339986801147461
aF0.0023339033126831056
aF0.0023339390754699707
aF0.0023336410522460938
aF0.0023338437080383302
asg11
I20
sg12
I10
sg13
(lp95
F0.42008547782897948
aF0.42002134323120116
aF0.41998629570007323
aF0.41998438835144042
aF0.41996746063232421
aF0.42008142471313475
aF0.42003636360168456
aF0.42012219429016112
aF0.41998748779296874
aF0.41995935440063475
asg15
F2
sg16
I12000
sg17
(F0.41995935440063475
F0.42229294776916504
F0.0023335933685302733
tp96
sbsS'CreateStringsWithConcat'
p97
(iStrings
CreateStringsWithConcat
p98
(dp99
g8
I50
sg9
(lp100
F0.0038969039916992186
aF0.0038955450057983399
aF0.0038945913314819337
aF0.0039000391960144045
aF0.003895390033721924
aF0.0038947463035583496
aF0.0038949370384216307
aF0.0038947343826293947
aF0.0038948416709899901
aF0.0038995981216430665
aF0.0039015412330627441
aF0.0038955450057983399
aF0.0038945436477661132
aF0.0038980960845947264
aF0.0038953423500061035
aF0.0038946866989135742
aF0.0038958907127380369
aF0.0038954973220825194
aF0.0038945436477661132
aF0.0038947463035583496
asg11
I20
sg12
I10
sg13
(lp101
F0.4607043504714966
aF0.46084930896759035
aF0.46071245670318606
aF0.46054651737213137
aF0.4613604784011841
aF0.46079447269439699
aF0.46086242198944094
aF0.46190836429595949
aF0.4611923933029175
aF0.4606125593185425
asg15
F2
sg16
I20000
sg17
(F0.4606125593185425
F0.46450710296630859
F0.0038945436477661132
tp102
sbsS'SmallLists'
p103
(iLists
SmallLists
p104
(dp105
g8
I85
sg9
(lp106
F0.0015535950660705566
aF0.0015534520149230956
aF0.0015533447265625
aF0.0015532374382019043
aF0.0015573382377624511
aF0.0015584945678710938
aF0.0015539407730102539
aF0.0015534400939941407
aF0.0015535831451416015
aF0.0015535950660705566
aF0.0015533447265625
aF0.0015532493591308594
aF0.0015532016754150391
aF0.0015559911727905274
aF0.0015535354614257812
aF0.0015538454055786133
aF0.0015540361404418946
aF0.0015535354614257812
aF0.0015533447265625
aF0.0015532970428466797
asg11
I20
sg12
I10
sg13
(lp107
F0.51833996772766111
aF0.51790866851806638
aF0.5169657230377197
aF0.51745781898498533
aF0.5176368713378906
aF0.52078495025634763
aF0.51865086555480955
aF0.52229485511779783
aF0.51808080673217771
aF0.51683077812194822
asg15
F2
sg16
I8000
sg17
(F0.51683077812194822
F0.51838397979736328
F0.0015532016754150391
tp108
sbsS'CompareUnicode'
p109
(iUnicode
CompareUnicode
p110
(dp111
g8
I50
sg9
(lp112
F0.0030113935470581056
aF0.0030037879943847655
aF0.0030071377754211427
aF0.0030043005943298342
aF0.0030049920082092286
aF0.0030040383338928224
aF0.0030038952827453613
aF0.0030039429664611818
aF0.0030047416687011717
aF0.003005540370941162
aF0.0030119895935058595
aF0.0030050396919250487
aF0.0030050396919250487
aF0.003005194664001465
aF0.0030045390129089357
aF0.0030042409896850588
aF0.0030043959617614747
aF0.003008139133453369
aF0.0030097484588623045
aF0.0030044436454772947
asg11
I20
sg12
I10
sg13
(lp113
F0.42734436988830565
aF0.42737822532653807
aF0.42745237350463866
aF0.42736129760742186
aF0.42735414505004882
aF0.42659025192260741
aF0.42806105613708495
aF0.4267101764678955
aF0.42663817405700682
aF0.42659311294555663
asg15
F2
sg16
I15000
sg17
(F0.42659311294555663
F0.42959690093994141
F0.0030037879943847655
tp114
sbsS'SimpleListManipulation'
p115
(iLists
SimpleListManipulation
p116
(dp117
g8
I90
sg9
(lp118
F0.0025310516357421875
aF0.0025308847427368162
aF0.0025312423706054686
aF0.0025326013565063477
aF0.0025306940078735352
aF0.0025306820869445803
aF0.002535545825958252
aF0.0025313973426818849
aF0.0025306940078735352
aF0.0025308847427368162
aF0.0025311946868896485
aF0.0025306940078735352
aF0.0025322914123535158
aF0.0025357842445373536
aF0.0025307893753051757
aF0.0025306940078735352
aF0.0025306940078735352
aF0.0025314927101135255
aF0.0025307416915893556
aF0.0025306463241577147
asg11
I20
sg12
I10
sg13
(lp119
F0.39940135478973388
aF0.39931623935699462
aF0.39925925731658934
aF0.39928143024444579
aF0.3991913080215454
aF0.39938037395477294
aF0.39927332401275634
aF0.39943449497222899
aF0.39932434558868407
aF0.39693038463592528
asg15
F2
sg16
I13000
sg17
(F0.39693038463592528
F0.39946103096008301
F0.0025306463241577147
tp120
sbsS'DictWithFloatKeys'
p121
(iDict
DictWithFloatKeys
p122
(dp123
g8
I60
sg9
(lp124
F0.0029207825660705566
aF0.0029200315475463867
aF0.002920830249786377
aF0.0029215335845947264
aF0.0029216289520263674
aF0.0029202342033386231
aF0.0029200315475463867
aF0.0029202818870544432
aF0.0029213309288024904
aF0.0029197812080383303
aF0.0029201388359069826
aF0.0029204845428466796
aF0.0029199719429016113
aF0.0029200315475463867
aF0.0029199242591857908
aF0.0029201865196228026
aF0.0029248356819152831
aF0.0029203772544860842
aF0.0029200792312622072
aF0.0029198765754699708
asg11
I20
sg12
I10
sg13
(lp125
F3.4439510226249697
aF3.4396802306175234
aF3.4415322661399843
aF3.4428740859031679
aF3.4398104071617128
aF3.4186140418052675
aF3.4266771197319033
aF3.4166461348533632
aF3.42269743680954
aF3.4218012213706972
asg15
F2
sg16
I15000
sg17
(F3.4218012213706972
F3.4247210025787354
F0.0029197812080383303
tp126
sbsS'CreateNewInstances'
p127
(iNewInstances
CreateNewInstances
p128
(dp129
g8
I14
sg9
(lp130
F0.0015461921691894531
aF0.0015464425086975098
aF0.0015674948692321778
aF0.0015772938728332519
aF0.0015965938568115235
aF0.0016114950180053712
aF0.0016283035278320313
aF0.0016489863395690919
aF0.001671743392944336
aF0.001697397232055664
aF0.0017158389091491699
aF0.0017454981803894042
aF0.0017798423767089843
aF0.0018064975738525391
aF0.0018480420112609863
aF0.0018692374229431151
aF0.0019013881683349609
aF0.001936793327331543
aF0.0019750475883483888
aF0.0020289421081542969
asg11
I20
sg12
I10
sg13
(lp131
F0.48812193870544435
aF0.49459786415100099
aF0.49255366325378419
aF0.49244279861450196
aF0.49041361808776857
aF0.49036188125610353
aF0.48889775276184083
aF0.49968571662902833
aF0.49573178291320802
aF0.49423475265502931
asg15
F2
sg16
I6000
sg17
(F0.49423475265502931
F0.49578094482421875
F0.0015461921691894531
tp132
sbsS'TryExcept'
p133
(iExceptions
TryExcept
p134
(dp135
g8
I150
sg9
(lp136
F0.0029207944869995119
aF0.0029193997383117677
aF0.0029206991195678709
aF0.0029194355010986328
aF0.0029196858406066893
aF0.0029233932495117188
aF0.0029193401336669923
aF0.0029192924499511718
aF0.0029199361801147462
aF0.0029191851615905763
aF0.0029254913330078124
aF0.0029194355010986328
aF0.0029192447662353517
aF0.0029197454452514647
aF0.0029191851615905763
aF0.0029193878173828123
aF0.0029191374778747559
aF0.0029197454452514647
aF0.0029221415519714356
aF0.0029205918312072755
asg11
I20
sg12
I10
sg13
(lp137
F0.42734795808792114
aF0.42720490694046021
aF0.4271729588508606
aF0.42722374200820923
aF0.42725998163223267
aF0.42735368013381958
aF0.42718178033828735
aF0.42721587419509888
aF0.42720490694046021
aF0.42725092172622681
asg15
F2
sg16
I15000
sg17
(F0.42725092172622681
F0.43017005920410156
F0.0029191374778747559
tp138
sbsS'ComplexPythonFunctionCalls'
p139
(iCalls
ComplexPythonFunctionCalls
p140
(dp141
g8
I20
sg9
(lp142
F0.0019550323486328125
aF0.0019526243209838866
aF0.001952338218688965
aF0.0019522309303283691
aF0.0019516348838806152
aF0.0019514799118041993
aF0.0019514322280883788
aF0.0019514203071594239
aF0.0019519805908203127
aF0.0019586205482482908
aF0.0019578337669372559
aF0.0019517779350280763
aF0.0019517302513122558
aF0.0019514322280883788
aF0.0019511342048645019
aF0.0019522905349731445
aF0.0019535779953002929
aF0.0019533753395080565
aF0.0019515275955200194
aF0.0019513845443725588
asg11
I20
sg12
I10
sg13
(lp143
F0.48221787214279177
aF0.4830618739128113
aF0.48444184064865115
aF0.48406394720077517
aF0.48355778455734255
aF0.48318799734115603
aF0.48295983076095583
aF0.48429187536239626
aF0.48355993032455447
aF0.48419197797775271
asg15
F2
sg16
I10000
sg17
(F0.48419197797775271
F0.48614311218261719
F0.0019511342048645019
tp144
sbsS'TryRaiseExcept'
p145
(iExceptions
TryRaiseExcept
p146
(dp147
g8
I8
sg9
(lp148
F0.0015555739402770997
aF0.0015543341636657716
aF0.0015561342239379882
aF0.0015556216239929199
aF0.0015541911125183105
aF0.0015541791915893554
aF0.0015540838241577149
aF0.0015541791915893554
aF0.0015546202659606934
aF0.0015546321868896485
aF0.0015542268753051757
aF0.0015557289123535156
aF0.0015543341636657716
aF0.0015541315078735352
aF0.0015540838241577149
aF0.0015541315078735352
aF0.0015545248985290526
aF0.0015546321868896485
aF0.0015544295310974121
aF0.0015542387962341308
asg11
I20
sg12
I10
sg13
(lp149
F0.42678778171539306
aF0.42595379352569579
aF0.42664091587066649
aF0.42630712985992431
aF0.42702476978302001
aF0.42543809413909911
aF0.42709605693817138
aF0.42618792057037352
aF0.42711298465728759
aF0.42651884555816649
asg15
F2
sg16
I8000
sg17
(F0.42651884555816649
F0.42807292938232422
F0.0015540838241577149
tp150
sbsS'IfThenElse'
p151
(iConstructs
IfThenElse
p152
(dp153
g8
I90
sg9
(lp154
F0.0029209971427917479
aF0.0029214501380920412
aF0.0029200434684753416
aF0.0029193520545959472
aF0.0029235482215881348
aF0.0029198408126831056
aF0.0029196381568908692
aF0.0029203891754150391
aF0.0029195904731750487
aF0.0029256463050842283
aF0.0029195427894592287
aF0.002920198440551758
aF0.0029196381568908692
aF0.0029195904731750487
aF0.0029196500778198241
aF0.0029196977615356446
aF0.0029198408126831056
aF0.0029231905937194824
aF0.0029200911521911621
aF0.0029197454452514647
asg11
I20
sg12
I10
sg13
(lp155
F0.30640968084335329
aF0.30654462575912478
aF0.30640276670455935
aF0.30646857023239138
aF0.30645474195480349
aF0.30641778707504275
aF0.30658873319625857
aF0.30649265050888064
aF0.30645760297775271
aF0.30645974874496462
asg15
F2
sg16
I15000
sg17
(F0.30645974874496462
F0.30937910079956055
F0.0029193520545959472
tp156
sbsS'NormalInstanceAttribute'
p157
(iLookups
NormalInstanceAttribute
p158
(dp159
g8
I120
sg9
(lp160
F0.0019595742225646971
aF0.0019575357437133789
aF0.0019573330879211425
aF0.0019572854042053224
aF0.0019578337669372559
aF0.0019588351249694826
aF0.0019630789756774902
aF0.001957380771636963
aF0.0019573211669921876
aF0.0019574761390686035
aF0.0019572854042053224
aF0.00195772647857666
aF0.0019571900367736815
aF0.0019571900367736815
aF0.0019568800926208496
aF0.0019573330879211425
aF0.0019572854042053224
aF0.0019600868225097658
aF0.0019604802131652833
aF0.0019575357437133789
asg11
I20
sg12
I10
sg13
(lp161
F0.50788599252700806
aF0.50669604539871216
aF0.50788098573684692
aF0.50791221857070923
aF0.50805097818374634
aF0.50689011812210083
aF0.50668817758560181
aF0.50763994455337524
aF0.50679212808609009
aF0.50681000947952271
asg15
F2
sg16
I10000
sg17
(F0.50681000947952271
F0.50876688957214355
F0.0019568800926208496
tp162
sbsS'BuiltinFunctionCalls'
p163
(iCalls
BuiltinFunctionCalls
p164
(dp165
g8
I85
sg9
(lp166
F0.0011662483215332032
aF0.0011657953262329101
aF0.0011648893356323241
aF0.0011642932891845702
aF0.0011654973030090332
aF0.0011648416519165039
aF0.0011701464653015136
aF0.0011641502380371094
aF0.0011645913124084472
aF0.0011646389961242677
aF0.0011641979217529297
aF0.0011646509170532226
aF0.0011640429496765138
aF0.0011639952659606933
aF0.0011644959449768066
aF0.0011639952659606933
aF0.0011639952659606933
aF0.0011646389961242677
aF0.0011640429496765138
aF0.0011641979217529297
asg11
I20
sg12
I10
sg13
(lp167
F0.56418081521987917
aF0.56401296854019167
aF0.56595393419265749
aF0.56709810495376589
aF0.5660619378089905
aF0.56556912660598757
aF0.56758400201797488
aF0.56674095392227175
aF0.56679507493972781
aF0.56702109575271609
asg15
F2
sg16
I6000
sg17
(F0.56702109575271609
F0.56818509101867676
F0.0011639952659606933
tp168
sbsS'UnicodeMappings'
p169
(iUnicode
UnicodeMappings
p170
(dp171
g8
I36
sg9
(lp172
F0.0023083925247192384
aF0.0022936463356018066
aF0.0022990465164184569
aF0.0022939920425415041
aF0.0022953391075134278
aF0.0022961974143981935
aF0.0022977471351623537
aF0.0022979855537414553
aF0.0022979974746704102
aF0.0022982954978942871
aF0.0022983908653259276
aF0.0023026943206787111
aF0.0023065447807312013
aF0.0023007392883300781
aF0.0023001909255981447
aF0.0022997975349426268
aF0.0023012399673461915
aF0.0023017525672912598
aF0.0023018360137939454
aF0.0023033976554870605
asg11
I20
sg12
I10
sg13
(lp173
F0.78954237699508667
aF0.78951233625411987
aF0.78949636220932007
aF0.78944343328475952
aF0.79000633955001831
aF0.79125851392745972
aF0.79158133268356323
aF0.78926032781600952
aF0.79058021306991577
aF0.78944629430770874
asg15
F2
sg16
I1000
sg17
(F0.78944629430770874
F0.79173994064331055
F0.0022936463356018066
tp174
sbsS'CompareFloats'
p175
(iNumbers
CompareFloats
p176
(dp177
g8
I150
sg9
(lp178
F0.0015545368194580078
aF0.0015533328056335448
aF0.001562190055847168
aF0.0015536904335021972
aF0.001558840274810791
aF0.0015534996986389161
aF0.0015532016754150391
aF0.0015536427497863769
aF0.001553189754486084
aF0.0015532493591308594
aF0.0015532493591308594
aF0.0015554428100585938
aF0.0015547513961791993
aF0.0015532493591308594
aF0.0015531539916992187
aF0.0015532970428466797
aF0.0015534996986389161
aF0.0015532851219177246
aF0.0015531420707702638
aF0.0015534996986389161
asg11
I20
sg12
I10
sg13
(lp179
F0.53260794878005979
aF0.53264085054397581
aF0.53273597955703733
aF0.53267780542373655
aF0.53260580301284788
aF0.53259602785110471
aF0.53264800310134885
aF0.53271881341934202
aF0.53261796236038206
aF0.53260484933853147
asg15
F2
sg16
I8000
sg17
(F0.53260484933853147
F0.53415799140930176
F0.0015531420707702638
tp180
sbsS'StringMappings'
p181
(iStrings
StringMappings
p182
(dp183
g8
I36
sg9
(lp184
F0.0018753409385681152
aF0.0018710494041442871
aF0.0018703460693359375
aF0.0018708467483520507
aF0.0018707871437072753
aF0.0018714427947998046
aF0.0018720388412475585
aF0.0018759369850158691
aF0.0018707871437072753
aF0.0018709897994995117
aF0.001870739459991455
aF0.0018703341484069824
aF0.0018714427947998046
aF0.0018709421157836914
aF0.0018711447715759276
aF0.0018705368041992188
aF0.0018709897994995117
aF0.001871037483215332
aF0.0018711447715759276
aF0.001874244213104248
asg11
I20
sg12
I10
sg13
(lp185
F0.45033866167068481
aF0.45010286569595337
aF0.44995576143264771
aF0.44994050264358521
aF0.45622855424880981
aF0.45001274347305298
aF0.45006257295608521
aF0.44999557733535767
aF0.45010977983474731
aF0.44995862245559692
asg15
F2
sg16
I7000
sg17
(F0.44995862245559692
F0.45182895660400391
F0.0018703341484069824
tp186
sbsS'TryFinally'
p187
(iWith
TryFinally
p188
(dp189
g8
I20
sg9
(lp190
F0.0015587449073791505
aF0.001556098461151123
aF0.0015558004379272461
aF0.0015558004379272461
aF0.0015565991401672364
aF0.001556098461151123
aF0.0015558958053588866
aF0.0015558362007141112
aF0.0015558362007141112
aF0.0015559434890747071
aF0.0015558362007141112
aF0.001555788516998291
aF0.001556539535522461
aF0.0015604853630065917
aF0.0015613436698913574
aF0.0015560388565063477
aF0.001555788516998291
aF0.0015560388565063477
aF0.0015558481216430664
aF0.0015558481216430664
asg11
I20
sg12
I10
sg13
(lp191
F0.4477201819419861
aF0.44743622541427613
aF0.4473692297935486
aF0.4475220561027527
aF0.44742430448532106
aF0.44729627370834352
aF0.4474002242088318
aF0.44740904569625856
aF0.4475680708885193
aF0.44739903211593629
asg15
F2
sg16
I8000
sg17
(F0.44739903211593629
F0.44895482063293457
F0.001555788516998291
tp192
sbsS'Recursion'
p193
(iCalls
Recursion
p194
(dp195
g8
I5
sg9
(lp196
F0.0019479036331176759
aF0.0019456505775451659
aF0.0019456505775451659
aF0.0019456505775451659
aF0.0019456863403320313
aF0.0019458413124084472
aF0.0019470453262329102
aF0.0019459962844848634
aF0.001945352554321289
aF0.0019458413124084472
aF0.0019456982612609864
aF0.001945638656616211
aF0.0019460916519165039
aF0.0019456982612609864
aF0.0019455909729003905
aF0.0019456982612609864
aF0.0019455432891845703
aF0.0019456863403320313
aF0.0019464969635009765
aF0.0019508361816406249
asg11
I20
sg12
I10
sg13
(lp197
F0.62472167015075686
aF0.62480058670043948
aF0.624651575088501
aF0.624651575088501
aF0.62479462623596194
aF0.62494363784790041
aF0.62482872009277346
aF0.62474551200866701
aF0.62466468811035158
aF0.62464966773986819
asg15
F2
sg16
I10000
sg17
(F0.62464966773986819
F0.62659502029418945
F0.001945352554321289
tp198
sbsS'SimpleLongArithmetic'
p199
(iArithmetic
SimpleLongArithmetic
p200
(dp201
g8
I110
sg9
(lp202
F0.0011637449264526368
aF0.0011632919311523437
aF0.0011636018753051758
aF0.0011647462844848633
aF0.0011644005775451661
aF0.0011650919914245605
aF0.0011634469032287599
aF0.0011629939079284668
aF0.0011633992195129394
aF0.0011629939079284668
aF0.0011628866195678711
aF0.001163339614868164
aF0.0011629462242126465
aF0.0011629462242126465
aF0.0011633515357971191
aF0.0011629462242126465
aF0.0011629343032836914
aF0.0011637449264526368
aF0.0011629939079284668
aF0.0011629462242126465
asg11
I20
sg12
I10
sg13
(lp203
F0.38561499118804932
aF0.38664209842681885
aF0.38536012172698975
aF0.38762223720550537
aF0.38731300830841064
aF0.38538110256195068
aF0.38525116443634033
aF0.38743007183074951
aF0.38716709613800049
aF0.38583600521087646
asg15
F2
sg16
I6000
sg17
(F0.38583600521087646
F0.38699889183044434
F0.0011628866195678711
tp204
sbsS'SimpleDictManipulation'
p205
(iDict
SimpleDictManipulation
p206
(dp207
g8
I120
sg9
(lp208
F0.001945793628692627
aF0.0019449949264526366
aF0.0019448399543762207
aF0.0019449353218078612
aF0.0019449472427368164
aF0.0019451022148132325
aF0.001945197582244873
aF0.0019449830055236817
aF0.0019447922706604004
aF0.0019462466239929198
aF0.0019494414329528807
aF0.0019449472427368164
aF0.0019454360008239746
aF0.0019449949264526366
aF0.0019449949264526366
aF0.0019450426101684571
aF0.0019450902938842774
aF0.0019449949264526366
aF0.0019447445869445802
aF0.0019452929496765136
asg11
I20
sg12
I10
sg13
(lp209
F0.46860913038253782
aF0.46867827177047727
aF0.46862033605575559
aF0.46858433485031126
aF0.46858409643173216
aF0.46863535642623899
aF0.46867612600326536
aF0.47041920423507688
aF0.47037223577499387
aF0.47037318944931028
asg15
F2
sg16
I10000
sg17
(F0.47037318944931028
F0.47231793403625488
F0.0019447445869445802
tp210
sbsS'WithRaiseExcept'
p211
(iWith
WithRaiseExcept
p212
(dp213
g8
I8
sg9
(lp214
F0.001948237419128418
aF0.0019479513168334961
aF0.0019476413726806641
aF0.0019483447074890138
aF0.0019480943679809569
aF0.001947939395904541
aF0.00194779634475708
aF0.0019477486610412597
aF0.00194779634475708
aF0.0019478917121887207
aF0.0019480943679809569
aF0.0019514441490173342
aF0.0019527435302734374
aF0.0019476890563964843
aF0.0019480347633361816
aF0.0019478440284729005
aF0.0019483447074890138
aF0.0019482016563415528
aF0.0019479870796203613
aF0.0019509911537170408
asg11
I20
sg12
I10
sg13
(lp215
F0.88648724555969238
aF0.87934136390686035
aF0.88434243202209473
aF0.88512039184570312
aF0.88634037971496582
aF0.85897946357727051
aF0.88184738159179688
aF0.87709832191467285
aF0.88567137718200684
aF0.8871452808380127
asg15
F2
sg16
I10000
sg17
(F0.8871452808380127
F0.88909292221069336
F0.0019476413726806641
tp216
sbsS'UnicodeProperties'
p217
(iUnicode
UnicodeProperties
p218
(dp219
g8
I40
sg9
(lp220
F0.0089650392532348629
aF0.0089597940444946286
aF0.0089604854583740234
aF0.0089596867561340336
aF0.008964741230010986
aF0.008959448337554932
aF0.0089599013328552253
aF0.0089630007743835456
aF0.0089592933654785156
aF0.008959650993347168
aF0.0089677333831787113
aF0.0089625358581542965
aF0.0089594960212707516
aF0.0089608907699584954
aF0.0089635491371154782
aF0.0089607357978820808
aF0.008964240550994873
aF0.0089598894119262695
aF0.0089629411697387702
aF0.0089597344398498532
asg11
I20
sg12
I10
sg13
(lp221
F0.44478273391723633
aF0.44599366188049316
aF0.44702768325805664
aF0.44621968269348145
aF0.4489438533782959
aF0.4489438533782959
aF0.44473671913146973
aF0.44848370552062988
aF0.44681453704833984
aF0.45029067993164062
asg15
F2
sg16
I10000
sg17
(F0.45029067993164062
F0.45924997329711914
F0.0089592933654785156
tp222
sbsS'SimpleIntFloatArithmetic'
p223
(iArithmetic
SimpleIntFloatArithmetic
p224
(dp225
g8
I110
sg9
(lp226
F0.0023360848426818848
aF0.0023344397544860841
aF0.0023342847824096681
aF0.0023341894149780272
aF0.0023356318473815919
aF0.0023343324661254882
aF0.0023341298103332518
aF0.0023341894149780272
aF0.0023342370986938477
aF0.0023341298103332518
aF0.0023340821266174317
aF0.0023338317871093748
aF0.0023343801498413087
aF0.0023349404335021974
aF0.0023389220237731933
aF0.0023343324661254882
aF0.0023342847824096681
aF0.0023339748382568359
aF0.0023348331451416016
aF0.0023341774940490723
asg11
I20
sg12
I10
sg13
(lp227
F0.62731509208679204
aF0.62639718055725102
aF0.62715535163879399
aF0.62972717285156254
aF0.62607817649841313
aF0.63002924919128422
aF0.62993912696838383
aF0.62586526870727544
aF0.62966709136962895
aF0.62667827606201176
asg15
F2
sg16
I12000
sg17
(F0.62667827606201176
F0.62901210784912109
F0.0023338317871093748
tp228
sbsS'CreateUnicodeWithConcat'
p229
(iUnicode
CreateUnicodeWithConcat
p230
(dp231
g8
I50
sg9
(lp232
F0.0015535473823547364
aF0.0015532374382019043
aF0.0015533447265625
aF0.0015538930892944336
aF0.0015532970428466797
aF0.0015533924102783202
aF0.0015545487403869629
aF0.0015577435493469237
aF0.0015533447265625
aF0.0015532970428466797
aF0.0015532493591308594
aF0.0015540003776550293
aF0.0015533924102783202
aF0.0015532493591308594
aF0.0015532493591308594
aF0.0015534400939941407
aF0.001553189754486084
aF0.0015532493591308594
aF0.001553189754486084
aF0.0015537977218627931
asg11
I20
sg12
I10
sg13
(lp233
F0.31369696855545043
aF0.31383787393569945
aF0.31330381631851195
aF0.3134187340736389
aF0.31411658525466918
aF0.31705390214920043
aF0.31334577798843383
aF0.31379090547561644
aF0.31385074853897094
aF0.31360493898391723
asg15
F2
sg16
I8000
sg17
(F0.31360493898391723
F0.31515812873840332
F0.001553189754486084
tp234
sbsS'ListSlicing'
p235
(iLists
ListSlicing
p236
(dp237
g8
I175
sg9
(lp238
F0.0004035353660583496
aF0.00040324926376342771
aF0.00040320158004760744
aF0.00040265321731567381
aF0.00040354728698730467
aF0.00040318965911865232
aF0.00040309429168701173
aF0.00040314197540283205
aF0.00040309429168701173
aF0.00040279626846313478
aF0.00040314197540283205
aF0.00040314197540283205
aF0.00040309429168701173
aF0.00040309429168701173
aF0.00040268898010253906
aF0.00040304660797119141
aF0.00040308237075805666
aF0.00040339231491088868
aF0.00040334463119506836
aF0.0004028439521789551
asg11
I20
sg12
I10
sg13
(lp239
F0.47758725881576536
aF0.4773652911186218
aF0.47746018171310423
aF0.4771664500236511
aF0.47774533033370969
aF0.47731140851974485
aF0.47769144773483274
aF0.47753623723983762
aF0.47773245573043821
aF0.47823551893234251
asg15
F2
sg16
I80
sg17
(F0.47823551893234251
F0.4786381721496582
F0.00040265321731567381
tp240
sbsS'SimpleListComprehensions'
p241
(iLists
SimpleListComprehensions
p242
(dp243
g8
I6
sg9
(lp244
F0.00039297342300415039
aF0.00039232969284057616
aF0.00039228200912475584
aF0.00039157867431640627
aF0.00039273500442504883
aF0.00039228200912475584
aF0.00039223432540893557
aF0.00039438009262084963
aF0.00039188861846923829
aF0.0003937721252441406
aF0.00039242506027221681
aF0.00039228200912475584
aF0.00039232969284057616
aF0.00039159059524536134
aF0.00039223432540893557
aF0.00039217472076416018
aF0.00039228200912475584
aF0.00039228200912475584
aF0.00039168596267700193
aF0.00039222240447998045
asg11
I20
sg12
I10
sg13
(lp245
F0.50110759735107424
aF0.49630727767944338
aF0.49636425971984866
aF0.49688544273376467
aF0.49133148193359377
aF0.49538841247558596
aF0.49582638740539553
aF0.49574437141418459
aF0.50007143020629885
aF0.50343837738037112
asg15
F2
sg16
I2000
sg17
(F0.50343837738037112
F0.5038299560546875
F0.00039157867431640627
tp246
sbsS'CompareLongs'
p247
(iNumbers
CompareLongs
p248
(dp249
g8
I150
sg9
(lp250
F0.0013604879379272461
aF0.001358795166015625
aF0.0013583421707153321
aF0.0013579845428466797
aF0.0013582944869995118
aF0.0013582468032836913
aF0.0013581395149230957
aF0.0013579964637756349
aF0.0013582468032836913
aF0.0013611912727355957
aF0.001358795166015625
aF0.0013579964637756349
aF0.0013581871986389159
aF0.0013589024543762206
aF0.0013579487800598144
aF0.0013583421707153321
aF0.0013582468032836913
aF0.0013581395149230957
aF0.0013579845428466797
aF0.0013582468032836913
asg11
I20
sg12
I10
sg13
(lp251
F0.40296419858932497
aF0.40310009717941286
aF0.403044068813324
aF0.40301903486251833
aF0.40300115346908572
aF0.4029682517051697
aF0.40310295820236208
aF0.40307601690292361
aF0.40301092863082888
aF0.40300806760787966
asg15
F2
sg16
I7000
sg17
(F0.40300806760787966
F0.40436601638793945
F0.0013579487800598144
tp252
sbsS'SimpleIntegerArithmetic'
p253
(iArithmetic
SimpleIntegerArithmetic
p254
(dp255
g8
I110
sg9
(lp256
F0.0023347854614257811
aF0.0023341894149780272
aF0.0023339867591857912
aF0.0023338913917541502
aF0.002337336540222168
aF0.0023355364799499513
aF0.0023338794708251953
aF0.0023341774940490723
aF0.0023340821266174317
aF0.0023343324661254882
aF0.0023341298103332518
aF0.0023339867591857912
aF0.0023340821266174317
aF0.0023337841033935548
aF0.0023340821266174317
aF0.0023382306098937988
aF0.0023386240005493163
aF0.0023342370986938477
aF0.0023340821266174317
aF0.0023338794708251953
asg11
I20
sg12
I10
sg13
(lp257
F0.62808117866516111
aF0.62652907371520994
aF0.62724623680114744
aF0.63042006492614744
aF0.62610826492309568
aF0.62993607521057127
aF0.63009510040283201
aF0.62606225013732908
aF0.63036618232727049
aF0.62663302421569822
asg15
F2
sg16
I12000
sg17
(F0.62663302421569822
F0.6289668083190918
F0.0023337841033935548
tp258
sbsS'SpecialClassAttribute'
p259
(iLookups
SpecialClassAttribute
p260
(dp261
g8
I120
sg9
(lp262
F0.001957082748413086
aF0.0019554495811462402
aF0.0019552946090698243
aF0.0019551873207092284
aF0.0019552946090698243
aF0.0019556403160095213
aF0.0019552350044250489
aF0.0019572019577026368
aF0.0019578933715820312
aF0.0019554018974304197
aF0.0019552946090698243
aF0.0019555926322937013
aF0.0019551873207092284
aF0.0019551873207092284
aF0.0019552469253540038
aF0.0019552469253540038
aF0.0019551873207092284
aF0.0019553422927856444
aF0.0019554972648620607
aF0.0019551873207092284
asg11
I20
sg12
I10
sg13
(lp263
F0.55217465162277224
aF0.55214079618453982
aF0.5522597670555115
aF0.55629285573959353
aF0.55209478139877322
aF0.55216988325119021
aF0.55218895673751833
aF0.55643972158432009
aF0.55216773748397829
aF0.55631574392318728
asg15
F2
sg16
I10000
sg17
(F0.55631574392318728
F0.55827093124389648
F0.0019551873207092284
tp264
sbsS'SecondImport'
p265
(iImports
SecondImport
p266
(dp267
g8
I25
sg9
(lp268
F0.00077439546585083012
aF0.00077309608459472654
aF0.00077284574508666997
aF0.00077303647994995115
aF0.0007727384567260742
aF0.00077304840087890627
aF0.00077259540557861328
aF0.0007729411125183105
aF0.00077259540557861328
aF0.00077319145202636719
aF0.00077289342880249023
aF0.00077275037765502932
aF0.00077300071716308589
aF0.00077259540557861328
aF0.00077314376831054692
aF0.0007729411125183105
aF0.00077309608459472654
aF0.00077269077301025393
aF0.00077309608459472654
aF0.00077289342880249023
asg11
I20
sg12
I10
sg13
(lp269
F0.55308735370635986
aF0.55175936222076416
aF0.55277431011199951
aF0.55215847492218018
aF0.55376732349395752
aF0.55381929874420166
aF0.55160129070281982
aF0.55234730243682861
aF0.53402650356292725
aF0.55219352245330811
asg15
F2
sg16
I4000
sg17
(F0.55219352245330811
F0.55296611785888672
F0.00077259540557861328
tp270
sbsS'WithFinally'
p271
(iWith
WithFinally
p272
(dp273
g8
I20
sg9
(lp274
F0.0015589356422424316
aF0.0015569925308227539
aF0.0015581965446472168
aF0.0015572905540466309
aF0.0015619397163391113
aF0.0015569925308227539
aF0.0015568494796752929
aF0.0015571951866149903
aF0.0015569448471069336
aF0.0015568971633911134
aF0.0015572428703308106
aF0.0015569448471069336
aF0.0015568017959594726
aF0.0015567898750305175
aF0.0015567898750305175
aF0.0015567898750305175
aF0.0015571355819702149
aF0.0015569448471069336
aF0.001559138298034668
aF0.001559746265411377
asg11
I20
sg12
I10
sg13
(lp275
F0.60318812131881716
aF0.60225113630294802
aF0.60323532819747927
aF0.60220416784286501
aF0.60337122678756716
aF0.60182627439498904
aF0.60330804586410525
aF0.60168203115463259
aF0.60302528142929079
aF0.60262736082077029
asg15
F2
sg16
I8000
sg17
(F0.60262736082077029
F0.60418415069580078
F0.0015567898750305175
tp276
sbsS'TupleSlicing'
p277
(iTuples
TupleSlicing
p278
(dp279
g8
I5250
sg9
(lp280
F0.00026369094848632812
aF0.00026345252990722656
aF0.00026273727416992188
aF0.00026243925094604492
aF0.00026293992996215818
aF0.00026234388351440428
aF0.00026289224624633791
aF0.00026234388351440428
aF0.00026284456253051759
aF0.00026240348815917967
aF0.00026293992996215818
aF0.00026234388351440428
aF0.00026293992996215818
aF0.00026229619979858401
aF0.00026284456253051759
aF0.00026229619979858401
aF0.00026289224624633791
aF0.00026270151138305662
aF0.00026204586029052732
aF0.00026268959045410155
asg11
I20
sg12
I10
sg13
(lp281
F0.49845907688140867
aF0.50114390850067136
aF0.50095198154449461
aF0.50115702152252195
aF0.49802896976470945
aF0.49684879779815672
aF0.50003979206085203
aF0.50100109577178953
aF0.49689981937408445
aF0.49592373371124265
asg15
F2
sg16
I50
sg17
(F0.49592373371124265
F0.4961857795715332
F0.00026204586029052732
tp282
sbsS'SimpleFloatArithmetic'
p283
(iArithmetic
SimpleFloatArithmetic
p284
(dp285
g8
I110
sg9
(lp286
F0.0023347258567810057
aF0.0023360848426818848
aF0.0023364305496215822
aF0.0023343324661254882
aF0.0023341298103332518
aF0.0023341774940490723
aF0.0023341774940490723
aF0.0023341417312622071
aF0.0023340344429016112
aF0.0023339748382568359
aF0.0023345351219177246
aF0.0023340821266174317
aF0.0023389339447021486
aF0.0023405909538269042
aF0.0023341417312622071
aF0.0023340344429016112
aF0.0023347258567810057
aF0.0023356795310974119
aF0.0023366808891296387
aF0.0023343324661254882
asg11
I20
sg12
I10
sg13
(lp287
F0.85875406265258791
aF0.85949125289916994
aF0.86015095710754397
aF0.85958805084228518
aF0.86006011962890627
aF0.85793104171752932
aF0.85685315132141116
aF0.86003794670104983
aF0.85758104324340823
aF0.85806193351745608
asg15
F2
sg16
I12000
sg17
(F0.85806193351745608
F0.86039590835571289
F0.0023339748382568359
tp288
sbsS'StringPredicates'
p289
(iStrings
StringPredicates
p290
(dp291
g8
I70
sg9
(lp292
F0.0089576959609985359
aF0.0089591979980468747
aF0.0089648008346557614
aF0.008955442905426025
aF0.0089579939842224128
aF0.0089562892913818363
aF0.0089545369148254401
aF0.0089546442031860352
aF0.0089598417282104499
aF0.0089549541473388679
aF0.0089545011520385746
aF0.0089579939842224128
aF0.0089546442031860352
aF0.0089599847793579105
aF0.0089605927467346184
aF0.0089578390121459964
aF0.0089545488357543942
aF0.0089562416076660149
aF0.0089546442031860352
aF0.0089600920677185055
asg11
I20
sg12
I10
sg13
(lp293
F0.49519255161285403
aF0.4943955183029175
aF0.49451949596405032
aF0.49447252750396731
aF0.49483659267425539
aF0.49448254108428957
aF0.49448850154876711
aF0.49447848796844485
aF0.49463369846343996
aF0.49468948841094973
asg15
F2
sg16
I10000
sg17
(F0.49468948841094973
F0.50364398956298828
F0.0089545011520385746
tp294
sbsS'BuiltinMethodLookup'
p295
(iLookups
BuiltinMethodLookup
p296
(dp297
g8
I150
sg9
(lp298
F0.0013600468635559082
aF0.0013597488403320312
aF0.0013592958450317383
aF0.0013588428497314452
aF0.0013612866401672362
aF0.001361846923828125
aF0.0013589859008789062
aF0.0013588428497314452
aF0.0013591408729553222
aF0.001359403133392334
aF0.0013589501380920411
aF0.0013587474822998047
aF0.0013589978218078614
aF0.0013589501380920411
aF0.0013586521148681641
aF0.0013591408729553222
aF0.001358938217163086
aF0.0013604998588562013
aF0.0013587474822998047
aF0.0013594508171081543
asg11
I20
sg12
I10
sg13
(lp299
F0.53280148506164549
aF0.53378543853759763
aF0.53273234367370603
aF0.53270134925842283
aF0.53286633491516111
aF0.53278717994689939
aF0.53281340599060056
aF0.5327423572540283
aF0.53269944190979002
aF0.53283820152282713
asg15
F2
sg16
I7000
sg17
(F0.53283820152282713
F0.53419685363769531
F0.0013586521148681641
tp300
sbsS'SimpleComplexArithmetic'
p301
(iArithmetic
SimpleComplexArithmetic
p302
(dp303
g8
I110
sg9
(lp304
F0.0015540361404418946
aF0.0015587925910949707
aF0.0015538930892944336
aF0.0015533328056335448
aF0.0015536427497863769
aF0.0015534520149230956
aF0.001553487777709961
aF0.0015533447265625
aF0.0015549421310424804
aF0.0015548467636108398
aF0.0015533447265625
aF0.0015537023544311523
aF0.0015533447265625
aF0.0015536427497863769
aF0.0015533447265625
aF0.0015533447265625
aF0.0015532970428466797
aF0.0015544414520263672
aF0.0015535473823547364
aF0.0015537023544311523
asg11
I20
sg12
I10
sg13
(lp305
F1.5121006965637207
aF1.5136816501617432
aF1.5139436721801758
aF1.5124316215515137
aF1.5121035575866699
aF1.5114567279815674
aF1.5151557922363281
aF1.5144996643066406
aF1.5159428119659424
aF1.5158586502075195
asg15
F2
sg16
I8000
sg17
(F1.5158586502075195
F1.5174119472503662
F0.0015532970428466797
tp306
sbsS'ConcatUnicode'
p307
(iUnicode
ConcatUnicode
p308
(dp309
g8
I50
sg9
(lp310
F0.0015124917030334474
aF0.0015097856521606445
aF0.0015095353126525878
aF0.001509547233581543
aF0.0015095949172973632
aF0.0015126347541809082
aF0.0015132904052734375
aF0.0015124440193176269
aF0.0015101909637451171
aF0.0015100955963134766
aF0.0015097856521606445
aF0.0015102386474609374
aF0.0015097498893737794
aF0.0015096426010131835
aF0.0015097022056579589
aF0.0015104889869689941
aF0.0015100359916687012
aF0.0015100002288818359
aF0.0015098929405212402
aF0.0015097856521606445
asg11
I20
sg12
I10
sg13
(lp311
F0.51849545240402217
aF0.52306450605392452
aF0.544958484172821
aF0.54426254034042354
aF0.52232755422592159
aF0.52828754186630245
aF0.52408255338668819
aF0.54238332509994502
aF0.53977741003036495
aF0.52474535703659053
asg15
F2
sg16
I6000
sg17
(F0.52474535703659053
F0.52625489234924316
F0.0015095353126525878
tp312
sbsS'CompareInternedStrings'
p313
(iStrings
CompareInternedStrings
p314
(dp315
g8
I50
sg9
(lp316
F0.0058963894844055176
aF0.0058779954910278317
aF0.005880892276763916
aF0.0058794856071472164
aF0.0058948397636413574
aF0.0058824896812438967
aF0.0058773875236511229
aF0.005878150463104248
aF0.0058776378631591793
aF0.0058863997459411618
aF0.0058778882026672367
aF0.005878245830535889
aF0.0058775901794433597
aF0.005883538722991943
aF0.0058810472488403324
aF0.0058791875839233395
aF0.0058788418769836429
aF0.0058898448944091795
aF0.0058805942535400391
aF0.0058805465698242186
asg11
I20
sg12
I10
sg13
(lp317
F0.45478068590164183
aF0.45477067232131957
aF0.45474253892898558
aF0.45488463640213012
aF0.45480047464370726
aF0.45478664636611937
aF0.45477162599563598
aF0.45487056970596312
aF0.45487080812454223
aF0.45480977296829223
asg15
F2
sg16
I30000
sg17
(F0.45480977296829223
F0.46068716049194336
F0.0058773875236511229
tp318
sbsS'CompareStrings'
p319
(iStrings
CompareStrings
p320
(dp321
g8
I50
sg9
(lp322
F0.0039460897445678707
aF0.0039439439773559567
aF0.0039521932601928713
aF0.0039450883865356449
aF0.0039444327354431156
aF0.0039444446563720705
aF0.0039443850517272951
aF0.003944301605224609
aF0.0039505362510681152
aF0.0039448976516723629
aF0.0039442539215087894
aF0.0039442896842956541
aF0.0039440870285034181
aF0.0039446473121643065
aF0.0039504408836364743
aF0.0039509892463684086
aF0.0039447903633117679
aF0.0039446473121643065
aF0.0039484858512878421
aF0.003944694995880127
asg11
I20
sg12
I10
sg13
(lp323
F0.41846916675567625
aF0.42029807567596433
aF0.41844198703765867
aF0.41716716289520261
aF0.41295001506805418
aF0.41790101528167722
aF0.41285011768341062
aF0.41761515140533445
aF0.41695210933685301
aF0.41631410121917722
asg15
F2
sg16
I20000
sg17
(F0.41631410121917722
F0.4202580451965332
F0.0039439439773559567
tp324
sbsS'SmallTuples'
p325
(iTuples
SmallTuples
p326
(dp327
g8
I60
sg9
(lp328
F0.0017486929893493653
aF0.0017487883567810058
aF0.0017499923706054688
aF0.0017493009567260743
aF0.001748204231262207
aF0.0017486929893493653
aF0.0017484426498413086
aF0.0017483949661254883
aF0.0017485976219177245
aF0.0017484903335571289
aF0.0017487406730651855
aF0.0017483830451965332
aF0.0017485380172729491
aF0.0017483472824096681
aF0.0017494916915893554
aF0.001753997802734375
aF0.0017486929893493653
aF0.0017483949661254883
aF0.0017490983009338379
aF0.0017483353614807129
asg11
I20
sg12
I10
sg13
(lp329
F0.46846878528594971
aF0.46842777729034424
aF0.46800386905670166
aF0.46856796741485596
aF0.46702182292938232
aF0.46831262111663818
aF0.46867978572845459
aF0.4685436487197876
aF0.4665297269821167
aF0.46855795383453369
asg15
F2
sg16
I9000
sg17
(F0.46855795383453369
F0.4703061580657959
F0.001748204231262207
tp330
sbsS'NormalClassAttribute'
p331
(iLookups
NormalClassAttribute
p332
(dp333
g8
I120
sg9
(lp334
F0.0019629359245300292
aF0.0019552350044250489
aF0.0019549965858459474
aF0.0019547462463378905
aF0.0019550442695617674
aF0.0019548416137695314
aF0.0019564867019653321
aF0.0019561886787414552
aF0.0019549012184143068
aF0.0019547939300537109
aF0.0019547939300537109
aF0.0019551038742065428
aF0.0019547343254089355
aF0.0019547462463378905
aF0.001956653594970703
aF0.0019548416137695314
aF0.0019545912742614745
aF0.0019550442695617674
aF0.001954638957977295
aF0.0019541501998901365
asg11
I20
sg12
I10
sg13
(lp335
F0.55559103488922124
aF0.55562989711761479
aF0.55554788112640385
aF0.55551474094390874
aF0.55552690029144292
aF0.55557982921600346
aF0.55565397739410405
aF0.55555074214935307
aF0.55555789470672612
aF0.55550687313079838
asg15
F2
sg16
I10000
sg17
(F0.55550687313079838
F0.55746102333068848
F0.0019541501998901365
tp336
sbsS'CreateInstances'
p337
(iInstances
CreateInstances
p338
(dp339
g8
I14
sg9
(lp340
F0.001585102081298828
aF0.00158233642578125
aF0.0015864968299865723
aF0.0015892863273620605
aF0.0015824437141418457
aF0.0015820980072021485
aF0.0015820026397705077
aF0.0015818476676940918
aF0.0015818476676940918
aF0.0015822887420654298
aF0.0015818476676940918
aF0.001585400104522705
aF0.0015827417373657227
aF0.0015820384025573731
aF0.0015817999839782715
aF0.0015821337699890136
aF0.0015819430351257323
aF0.0015821456909179688
aF0.0015820980072021485
aF0.0015818834304809569
asg11
I20
sg12
I10
sg13
(lp341
F0.60701833963394169
aF0.61320911645889287
aF0.61085020303726201
aF0.60944329500198369
aF0.60762511491775517
aF0.60755811929702763
aF0.60837827920913701
aF0.61749111413955693
aF0.60879718065261845
aF0.61329733133316044
asg15
F2
sg16
I8000
sg17
(F0.61329733133316044
F0.61487913131713867
F0.0015817999839782715
tp342
sbsS'DictWithStringKeys'
p343
(iDict
DictWithStringKeys
p344
(dp345
g8
I60
sg9
(lp346
F0.0038962960243225098
aF0.003895294666290283
aF0.0038963437080383303
aF0.0038997411727905275
aF0.0038954377174377441
aF0.0038954854011535645
aF0.0038954973220825194
aF0.0038953423500061035
aF0.0038965940475463867
aF0.0038982391357421874
aF0.0038958907127380369
aF0.0038951992988586425
aF0.003895294666290283
aF0.0038952350616455076
aF0.0038954377174377441
aF0.0038990974426269531
aF0.0039005398750305174
aF0.0038954854011535645
aF0.0038949966430664061
aF0.0038991451263427736
asg11
I20
sg12
I10
sg13
(lp347
F0.43658499717712401
aF0.43647389411926268
aF0.43645601272583007
aF0.43643383979797362
aF0.43646316528320311
aF0.43655805587768554
aF0.43647222518920897
aF0.44064788818359374
aF0.44063787460327147
aF0.44061784744262694
asg15
F2
sg16
I20000
sg17
(F0.44061784744262694
F0.44451284408569336
F0.0038949966430664061
tp348
sbsS'DictCreation'
p349
(iDict
DictCreation
p350
(dp351
g8
I50
sg9
(lp352
F0.0015539407730102539
aF0.0015551447868347168
aF0.0015557408332824707
aF0.0015533447265625
aF0.0015533447265625
aF0.0015532374382019043
aF0.0015532493591308594
aF0.0015533447265625
aF0.0015570878982543944
aF0.0015543460845947265
aF0.0015532970428466797
aF0.0015532493591308594
aF0.0015532493591308594
aF0.0015532016754150391
aF0.001553189754486084
aF0.0015535473823547364
aF0.0015541434288024903
aF0.0015535950660705566
aF0.0015578985214233399
aF0.0015587925910949707
asg11
I20
sg12
I10
sg13
(lp353
F0.38046394586563109
aF0.38021861314773558
aF0.37979065179824828
aF0.38012181520462035
aF0.37995086908340453
aF0.37984572649002074
aF0.3798397660255432
aF0.38024674654006957
aF0.37992678880691527
aF0.37990175485610961
asg15
F2
sg16
I8000
sg17
(F0.37990175485610961
F0.3814549446105957
F0.001553189754486084
tp354
sbsS'StringSlicing'
p355
(iStrings
StringSlicing
p356
(dp357
g8
I35
sg9
(lp358
F0.0032717466354370119
aF0.0032686471939086916
aF0.0032680392265319823
aF0.0032675981521606444
aF0.0032684922218322752
aF0.0032698869705200194
aF0.0032717943191528319
aF0.0032677412033081054
aF0.0032685995101928711
aF0.0032678961753845213
aF0.0032681941986083983
aF0.0032675862312316895
aF0.0032686471939086916
aF0.0032725453376770018
aF0.0032736420631408691
aF0.0032683372497558593
aF0.0032685995101928711
aF0.0032679915428161623
aF0.0032720446586608888
aF0.0032682418823242188
asg11
I20
sg12
I10
sg13
(lp359
F0.32125037908554077
aF0.32753032445907593
aF0.32162231206893921
aF0.32069438695907593
aF0.32084435224533081
aF0.32071250677108765
aF0.32192820310592651
aF0.32158750295639038
aF0.32092636823654175
aF0.32277148962020874
asg15
F2
sg16
I16000
sg17
(F0.32277148962020874
F0.32603907585144043
F0.0032675862312316895
tp360
sbssS'name'
p361
S'without_p27_kv3_1.pybench'
p362
sg11
I20
sg12
I10
sS'machine_details'
p363
(dp364
S'platform'
p365
S'Linux-3.10.20-rt14katana_v1.0.3+AUTOINC+84a91af059-mips64-with-glibc2.0'
p366
sS'executable'
p367
S'/usr/bin/python'
p368
sS'builddate'
p369
S'Dec 22 2015 21:09:23'
p370
sS'unicode'
p371
S'UCS2'
p372
sS'implementation'
p373
S'CPython'
p374
sS'compiler'
p375
S'GCC 4.7.0'
p376
sS'bits'
p377
S'64bit'
p378
sS'processor'
p379
S''
sS'buildno'
p380
S'default'
p381
sS'python'
p382
S'2.7.9'
p383
ssS'timer'
p384
S'time.time'
p385
sg15
F2
sS'roundtimes'
p386
(lp387
F35.034142303466801
aF35.039680290222172
aF35.097783136367802
aF35.094651031494145
aF35.051283884048466
aF34.99020795822144
aF35.007811117172245
aF35.078058052062993
aF35.045965242385869
aF35.038238334655766
asg16
I10
sS'verbose'
p388
I0
sb.