(i__main__
Benchmark
p1
(dp2
S'tests'
p3
(dp4
S'SpecialInstanceAttribute'
p5
(iLookups
SpecialInstanceAttribute
p6
(dp7
S'operations'
p8
I120
sS'overhead_times'
p9
(lp10
F0.00034855604171752931
aF0.00034840106964111327
asS'calibration_runs'
p11
I2
sS'warp'
p12
I10
sS'times'
p13
(lp14
F0.13033359050750731
aF0.13079946041107177
aF0.13036363124847411
aF0.13080971240997313
aF0.13019864559173583
aF0.13038365840911864
aF0.1300415277481079
aF0.1301485776901245
aF0.13091652393341063
aF0.13018457889556884
asS'version'
p15
F2
sS'rounds'
p16
I10000
sS'last_timing'
p17
(F0.13018457889556884
F0.13053297996520996
F0.00034840106964111327
tp18
sbsS'PythonFunctionCalls'
p19
(iCalls
PythonFunctionCalls
p20
(dp21
g8
I55
sg9
(lp22
F0.00020394325256347656
aF0.00020363330841064454
asg11
I2
sg12
I10
sg13
(lp23
F0.11837027072906495
aF0.1114513635635376
aF0.11167428493499756
aF0.11181828975677491
aF0.11149833202362061
aF0.111527419090271
aF0.11155555248260499
aF0.11157534122467042
aF0.11151835918426514
aF0.11112234592437745
asg15
F2
sg16
I6000
sg17
(F0.11112234592437745
F0.11132597923278809
F0.00020363330841064454
tp24
sbsS'CompareFloatsIntegers'
p25
(iNumbers
CompareFloatsIntegers
p26
(dp27
g8
I150
sg9
(lp28
F0.0002138376235961914
aF0.00021394491195678711
asg11
I2
sg12
I10
sg13
(lp29
F0.09783413410186767
aF0.11407020092010497
aF0.11405613422393798
aF0.11404230594635009
aF0.11404707431793212
aF0.11406829357147216
aF0.1140740156173706
aF0.11409022808074951
aF0.11406710147857665
aF0.11413934230804443
asg15
F2
sg16
I6000
sg17
(F0.11413934230804443
F0.11435317993164062
F0.0002138376235961914
tp30
sbsS'PythonMethodCalls'
p31
(iCalls
PythonMethodCalls
p32
(dp33
g8
I75
sg9
(lp34
F0.00010515451431274414
aF0.00010565519332885742
asg11
I2
sg12
I10
sg13
(lp35
F0.14747284650802611
aF0.14142774343490599
aF0.14168475866317748
aF0.14334295988082885
aF0.14247368574142455
aF0.14369295835494994
aF0.1428320288658142
aF0.14149879217147826
aF0.1426489233970642
aF0.14153884649276732
asg15
F2
sg16
I3000
sg17
(F0.14153884649276732
F0.14164400100708008
F0.00010515451431274414
tp36
sbsS'NestedListComprehensions'
p37
(iLists
NestedListComprehensions
p38
(dp39
g8
I6
sg9
(lp40
F6.8295001983642575e-05
aF6.8855285644531253e-05
asg11
I2
sg12
I10
sg13
(lp41
F0.12588084936141969
aF0.12880171537399293
aF0.12856162786483766
aF0.12867583036422731
aF0.12789071798324586
aF0.12558974027633668
aF0.12717260122299195
aF0.12651265859603883
aF0.12804569005966188
aF0.12747157812118531
asg15
F2
sg16
I2000
sg17
(F0.12747157812118531
F0.12753987312316895
F6.8295001983642575e-05
tp42
sbsS'SecondSubmoduleImport'
p43
(iImports
SecondSubmoduleImport
p44
(dp45
g8
I25
sg9
(lp46
F0.0001381993293762207
aF0.00013810396194458008
asg11
I2
sg12
I10
sg13
(lp47
F0.2115740180015564
aF0.20673888921737671
aF0.20958584547042847
aF0.21104687452316284
aF0.21508997678756714
aF0.21653169393539429
aF0.21519392728805542
aF0.21023672819137573
aF0.21014684438705444
aF0.21130603551864624
asg15
F2
sg16
I4000
sg17
(F0.21130603551864624
F0.21144413948059082
F0.00013810396194458008
tp48
sbsS'DictWithIntegerKeys'
p49
(iDict
DictWithIntegerKeys
p50
(dp51
g8
I60
sg9
(lp52
F0.00069189071655273438
aF0.00069314241409301758
asg11
I2
sg12
I10
sg13
(lp53
F0.10454726219177246
aF0.10444426536560059
aF0.10434103012084961
aF0.10438704490661621
aF0.10424995422363281
aF0.10445189476013184
aF0.10435318946838379
aF0.10489106178283691
aF0.10458707809448242
aF0.10469603538513184
asg15
F2
sg16
I20000
sg17
(F0.10469603538513184
F0.10538792610168457
F0.00069189071655273438
tp54
sbsS'UnicodeSlicing'
p55
(iUnicode
UnicodeSlicing
p56
(dp57
g8
I35
sg9
(lp58
F0.00052468776702880855
aF0.00052539110183715822
asg11
I2
sg12
I10
sg13
(lp59
F0.13490350246429444
aF0.12572247982025148
aF0.1322413206100464
aF0.1341331720352173
aF0.14010245800018312
aF0.13375337123870851
aF0.12639529705047609
aF0.13957126140594484
aF0.13432128429412843
aF0.13845808506011964
asg15
F2
sg16
I14000
sg17
(F0.13845808506011964
F0.13898277282714844
F0.00052468776702880855
tp60
sbsS'NestedForLoops'
p61
(iConstructs
NestedForLoops
p62
(dp63
g8
I50000
sg9
(lp64
F2.7060508728027344e-05
aF2.7096271514892579e-05
asg11
I2
sg12
I10
sg13
(lp65
F0.10351192951202393
aF0.10347282886505127
aF0.10344207286834717
aF0.1036609411239624
aF0.10570275783538818
aF0.10497009754180908
aF0.10953199863433838
aF0.10497009754180908
aF0.10496103763580322
aF0.10497486591339111
asg15
F2
sg16
I30
sg17
(F0.10497486591339111
F0.10500192642211914
F2.7060508728027344e-05
tp66
sbsS'UnicodePredicates'
p67
(iUnicode
UnicodePredicates
p68
(dp69
g8
I45
sg9
(lp70
F0.0026310920715332032
aF0.0026308894157409668
asg11
I2
sg12
I10
sg13
(lp71
F0.099254190921783447
aF0.099242031574249268
aF0.09922105073928833
aF0.10882598161697388
aF0.099230110645294189
aF0.10917907953262329
aF0.099229156970977783
aF0.099268019199371338
aF0.099242269992828369
aF0.10888129472732544
asg15
F2
sg16
I12000
sg17
(F0.10888129472732544
F0.11151218414306641
F0.0026308894157409668
tp72
sbsS'ForLoops'
p73
(iConstructs
ForLoops
p74
(dp75
g8
I25
sg9
(lp76
F6.3693523406982416e-05
aF6.3443183898925787e-05
asg11
I2
sg12
I10
sg13
(lp77
F0.081823563575744634
aF0.082019543647766119
aF0.082023358345031744
aF0.082025504112243658
aF0.082020497322082525
aF0.082202649116516119
aF0.082212424278259283
aF0.082017636299133306
aF0.08201358318328858
aF0.082217431068420416
asg15
F2
sg16
I1000
sg17
(F0.082217431068420416
F0.082280874252319336
F6.3443183898925787e-05
tp78
sbsS'ConcatStrings'
p79
(iStrings
ConcatStrings
p80
(dp81
g8
I50
sg9
(lp82
F0.00041834115982055666
aF0.00041880607604980467
asg11
I2
sg12
I10
sg13
(lp83
F0.18733056783676147
aF0.20934661626815795
aF0.20974358320236205
aF0.19348844289779663
aF0.19250258207321166
aF0.20947250127792358
aF0.18957051038742065
aF0.19008668661117553
aF0.18956574201583862
aF0.19008454084396362
asg15
F2
sg16
I10000
sg17
(F0.19008454084396362
F0.19050288200378418
F0.00041834115982055666
tp84
sbsS'SecondPackageImport'
p85
(iImports
SecondPackageImport
p86
(dp87
g8
I25
sg9
(lp88
F0.00013594627380371095
aF0.00013644695281982421
asg11
I2
sg12
I10
sg13
(lp89
F0.16354413032531739
aF0.15966219902038575
aF0.16243405342102052
aF0.16147108078002931
aF0.16520018577575685
aF0.16718192100524903
aF0.16390891075134278
aF0.15762705802917482
aF0.16244812011718751
aF0.16293592453002931
asg15
F2
sg16
I4000
sg17
(F0.16293592453002931
F0.16307187080383301
F0.00013594627380371095
tp90
sbsS'CompareIntegers'
p91
(iNumbers
CompareIntegers
p92
(dp93
g8
I150
sg9
(lp94
F0.00040783882141113279
aF0.00040769577026367188
asg11
I2
sg12
I10
sg13
(lp95
F0.1107025146484375
aF0.11071324348449707
aF0.11071920394897461
aF0.11071109771728516
aF0.11070942878723145
aF0.11072826385498047
aF0.11075329780578613
aF0.11073422431945801
aF0.11069512367248535
aF0.11070728302001953
asg15
F2
sg16
I12000
sg17
(F0.11070728302001953
F0.1111149787902832
F0.00040769577026367188
tp96
sbsS'CreateStringsWithConcat'
p97
(iStrings
CreateStringsWithConcat
p98
(dp99
g8
I50
sg9
(lp100
F0.00068154335021972654
aF0.0006807923316955566
asg11
I2
sg12
I10
sg13
(lp101
F0.11533130407333374
aF0.11481012105941772
aF0.11478604078292846
aF0.11593807935714721
aF0.1154331088066101
aF0.11525429487228393
aF0.11517513990402221
aF0.11545218229293823
aF0.11549032926559448
aF0.11546124219894409
asg15
F2
sg16
I20000
sg17
(F0.11546124219894409
F0.11614203453063965
F0.0006807923316955566
tp102
sbsS'SmallLists'
p103
(iLists
SmallLists
p104
(dp105
g8
I85
sg9
(lp106
F0.00027579069137573242
aF0.0002757430076599121
asg11
I2
sg12
I10
sg13
(lp107
F0.11543546915054322
aF0.11230336427688599
aF0.11063133478164673
aF0.11156116724014283
aF0.10862313508987427
aF0.11157428026199341
aF0.11154423952102661
aF0.11128436326980591
aF0.10857545137405396
aF0.10897027254104615
asg15
F2
sg16
I8000
sg17
(F0.10897027254104615
F0.10924601554870605
F0.0002757430076599121
tp108
sbsS'CompareUnicode'
p109
(iUnicode
CompareUnicode
p110
(dp111
g8
I50
sg9
(lp112
F0.00059134960174560551
aF0.00059050321578979492
asg11
I2
sg12
I10
sg13
(lp113
F0.10305839776992798
aF0.1026795506477356
aF0.10260659456253052
aF0.10259157419204712
aF0.1030004620552063
aF0.10264831781387329
aF0.10268455743789673
aF0.10264641046524048
aF0.10296851396560669
aF0.10256057977676392
asg15
F2
sg16
I15000
sg17
(F0.10256057977676392
F0.10315108299255371
F0.00059050321578979492
tp114
sbsS'SimpleListManipulation'
p115
(iLists
SimpleListManipulation
p116
(dp117
g8
I90
sg9
(lp118
F0.00044953823089599609
aF0.00045003890991210935
asg11
I2
sg12
I10
sg13
(lp119
F0.081965327262878418
aF0.08169257640838623
aF0.081632494926452637
aF0.081653475761413574
aF0.081586480140686035
aF0.081658482551574707
aF0.081648468971252441
aF0.081437468528747559
aF0.08144843578338623
aF0.081444621086120605
asg15
F2
sg16
I13000
sg17
(F0.081444621086120605
F0.081894159317016602
F0.00044953823089599609
tp120
sbsS'DictWithFloatKeys'
p121
(iDict
DictWithFloatKeys
p122
(dp123
g8
I60
sg9
(lp124
F0.0005110383033752441
aF0.00051153898239135747
asg11
I2
sg12
I10
sg13
(lp125
F0.11505688428878784
aF0.11488498449325561
aF0.11486901044845581
aF0.11485875844955444
aF0.11495007276535034
aF0.11487401723861694
aF0.11496890783309936
aF0.1153408408164978
aF0.11520494222640991
aF0.11531795263290405
asg15
F2
sg16
I15000
sg17
(F0.11531795263290405
F0.1158289909362793
F0.0005110383033752441
tp126
sbsS'CreateNewInstances'
p127
(iNewInstances
CreateNewInstances
p128
(dp129
g8
I14
sg9
(lp130
F0.00029809474945068358
aF0.00029774904251098631
asg11
I2
sg12
I10
sg13
(lp131
F0.11828116178512574
aF0.11704424619674683
aF0.11712220907211304
aF0.12235835790634156
aF0.11931041479110718
aF0.11859325170516968
aF0.1182752013206482
aF0.11565307378768921
aF0.11698917150497437
aF0.12032130956649781
asg15
F2
sg16
I6000
sg17
(F0.12032130956649781
F0.12061905860900879
F0.00029774904251098631
tp132
sbsS'TryExcept'
p133
(iExceptions
TryExcept
p134
(dp135
g8
I150
sg9
(lp136
F0.0005256414413452148
aF0.00052489042282104497
asg11
I2
sg12
I10
sg13
(lp137
F0.088183271884918216
aF0.08817325830459595
aF0.088176119327545169
aF0.074655163288116458
aF0.088185179233551028
aF0.088236200809478763
aF0.088216173648834231
aF0.088176119327545169
aF0.088174927234649661
aF0.088180172443389895
asg15
F2
sg16
I15000
sg17
(F0.088180172443389895
F0.088705062866210938
F0.00052489042282104497
tp138
sbsS'ComplexPythonFunctionCalls'
p139
(iCalls
ComplexPythonFunctionCalls
p140
(dp141
g8
I20
sg9
(lp142
F0.00034139156341552737
aF0.00034049749374389651
asg11
I2
sg12
I10
sg13
(lp143
F0.12756940126419067
aF0.13244839906692504
aF0.12607356309890747
aF0.12931057214736938
aF0.12454053163528442
aF0.12925359010696411
aF0.12476130723953247
aF0.12462350130081176
aF0.12549539804458618
aF0.12423654794692993
asg15
F2
sg16
I10000
sg17
(F0.12423654794692993
F0.12457704544067383
F0.00034049749374389651
tp144
sbsS'TryRaiseExcept'
p145
(iExceptions
TryRaiseExcept
p146
(dp147
g8
I8
sg9
(lp148
F0.0002829432487487793
aF0.0002833366394042969
asg11
I2
sg12
I10
sg13
(lp149
F0.12985688447952271
aF0.13172799348831177
aF0.13191992044448853
aF0.13112121820449829
aF0.13218909502029419
aF0.13086611032485962
aF0.13062196969985962
aF0.13106995820999146
aF0.13374096155166626
aF0.13058215379714966
asg15
F2
sg16
I8000
sg17
(F0.13058215379714966
F0.13086509704589844
F0.0002829432487487793
tp150
sbsS'IfThenElse'
p151
(iConstructs
IfThenElse
p152
(dp153
g8
I90
sg9
(lp154
F0.00052503347396850588
aF0.00052543878555297849
asg11
I2
sg12
I10
sg13
(lp155
F0.082295858860015864
aF0.082228863239288325
aF0.082383120059967035
aF0.08233495950698852
aF0.082051002979278559
aF0.0822860836982727
aF0.082321131229400629
aF0.082267963886260981
aF0.082159960269927973
aF0.082211935520172114
asg15
F2
sg16
I15000
sg17
(F0.082211935520172114
F0.082736968994140625
F0.00052503347396850588
tp156
sbsS'NormalInstanceAttribute'
p157
(iLookups
NormalInstanceAttribute
p158
(dp159
g8
I120
sg9
(lp160
F0.00035746097564697265
aF0.00035730600357055666
asg11
I2
sg12
I10
sg13
(lp161
F0.095620715618133539
aF0.094861829280853266
aF0.094988667964935297
aF0.094901645183563227
aF0.095029675960540766
aF0.095848643779754633
aF0.094942653179168696
aF0.094975793361663813
aF0.095873677730560297
aF0.094987714290618891
asg15
F2
sg16
I10000
sg17
(F0.094987714290618891
F0.095345020294189453
F0.00035730600357055666
tp162
sbsS'BuiltinFunctionCalls'
p163
(iCalls
BuiltinFunctionCalls
p164
(dp165
g8
I85
sg9
(lp166
F0.00020693540573120118
aF0.00020693540573120118
asg11
I2
sg12
I10
sg13
(lp167
F0.13228703737258912
aF0.13000704050064088
aF0.13050009012222291
aF0.13006211519241334
aF0.13011122941970826
aF0.13038088083267213
aF0.1310329556465149
aF0.13068414926528932
aF0.12989093065261842
aF0.12848807573318483
asg15
F2
sg16
I6000
sg17
(F0.12848807573318483
F0.12869501113891602
F0.00020693540573120118
tp168
sbsS'UnicodeMappings'
p169
(iUnicode
UnicodeMappings
p170
(dp171
g8
I36
sg9
(lp172
F0.00059144496917724605
aF0.00058809518814086916
asg11
I2
sg12
I10
sg13
(lp173
F0.14413579702377319
aF0.14527186155319213
aF0.14496382474899291
aF0.14445098638534545
aF0.1446567416191101
aF0.14381870031356811
aF0.14472993612289428
aF0.14451297521591186
aF0.14432986974716186
aF0.14395579099655151
asg15
F2
sg16
I1000
sg17
(F0.14395579099655151
F0.14454388618469238
F0.00058809518814086916
tp174
sbsS'CompareFloats'
p175
(iNumbers
CompareFloats
p176
(dp177
g8
I150
sg9
(lp178
F0.00028408765792846679
aF0.00028489828109741212
asg11
I2
sg12
I10
sg13
(lp179
F0.10304104089736939
aF0.10305200815200806
aF0.10304890871047974
aF0.10304509401321411
aF0.10305296182632447
aF0.10305105447769165
aF0.10308490991592408
aF0.10306178331375122
aF0.1030429482460022
aF0.10304008722305298
asg15
F2
sg16
I8000
sg17
(F0.10304008722305298
F0.10332417488098145
F0.00028408765792846679
tp180
sbsS'StringMappings'
p181
(iStrings
StringMappings
p182
(dp183
g8
I36
sg9
(lp184
F0.00035148859024047852
aF0.00035429000854492188
asg11
I2
sg12
I10
sg13
(lp185
F0.090130507946014404
aF0.09002155065536499
aF0.090148389339447021
aF0.090249478816986084
aF0.090040385723114014
aF0.09007948637008667
aF0.091988503932952881
aF0.09027332067489624
aF0.090058505535125732
aF0.09086841344833374
asg15
F2
sg16
I7000
sg17
(F0.09086841344833374
F0.091219902038574219
F0.00035148859024047852
tp186
sbsS'TryFinally'
p187
(iWith
TryFinally
p188
(dp189
g8
I20
sg9
(lp190
F0.00027201175689697268
aF0.0002711057662963867
asg11
I2
sg12
I10
sg13
(lp191
F0.11484382152557374
aF0.12058684825897217
aF0.11441991329193116
aF0.11292383670806885
aF0.11406490802764893
aF0.12104485034942628
aF0.1132368803024292
aF0.11411092281341553
aF0.11467192173004151
aF0.1200570821762085
asg15
F2
sg16
I8000
sg17
(F0.1200570821762085
F0.12032818794250488
F0.0002711057662963867
tp192
sbsS'Recursion'
p193
(iCalls
Recursion
p194
(dp195
g8
I5
sg9
(lp196
F0.0003399372100830078
aF0.00033943653106689454
asg11
I2
sg12
I10
sg13
(lp197
F0.15460355281829835
aF0.14806349277496339
aF0.14797456264495851
aF0.14796860218048097
aF0.14780766963958741
aF0.14799864292144777
aF0.14797551631927491
aF0.14799363613128663
aF0.14780457019805909
aF0.14797837734222413
asg15
F2
sg16
I10000
sg17
(F0.14797837734222413
F0.14831781387329102
F0.00033943653106689454
tp198
sbsS'SimpleLongArithmetic'
p199
(iArithmetic
SimpleLongArithmetic
p200
(dp201
g8
I110
sg9
(lp202
F0.00020345449447631836
aF0.00020340681076049804
asg11
I2
sg12
I10
sg13
(lp203
F0.086774551868438715
aF0.086900675296783442
aF0.08646556138992309
aF0.086765491962432856
aF0.086733782291412348
aF0.086910688877105707
aF0.086845600605010981
aF0.086530411243438715
aF0.086677753925323481
aF0.085790598392486567
asg15
F2
sg16
I6000
sg17
(F0.085790598392486567
F0.08599400520324707
F0.00020340681076049804
tp204
sbsS'SimpleDictManipulation'
p205
(iDict
SimpleDictManipulation
p206
(dp207
g8
I120
sg9
(lp208
F0.00034465789794921873
aF0.00034445524215698242
asg11
I2
sg12
I10
sg13
(lp209
F0.099696457386016846
aF0.10019546747207642
aF0.099691689014434814
aF0.099552452564239502
aF0.09966045618057251
aF0.10025840997695923
aF0.099794447422027588
aF0.099501430988311768
aF0.099808752536773682
aF0.099513590335845947
asg15
F2
sg16
I10000
sg17
(F0.099513590335845947
F0.09985804557800293
F0.00034445524215698242
tp210
sbsS'WithRaiseExcept'
p211
(iWith
WithRaiseExcept
p212
(dp213
g8
I8
sg9
(lp214
F0.00035079717636108396
aF0.00035128593444824221
asg11
I2
sg12
I10
sg13
(lp215
F0.261948025226593
aF0.26634613275527952
aF0.26659528017044065
aF0.26791325807571409
aF0.26763502359390257
aF0.26844326257705686
aF0.26664439439773557
aF0.27703324556350706
aF0.26959029436111448
aF0.26742211580276487
asg15
F2
sg16
I10000
sg17
(F0.26742211580276487
F0.26777291297912598
F0.00035079717636108396
tp216
sbsS'UnicodeProperties'
p217
(iUnicode
UnicodeProperties
p218
(dp219
g8
I40
sg9
(lp220
F0.0021896958351135254
aF0.0021908998489379881
asg11
I2
sg12
I10
sg13
(lp221
F0.11875122785568237
aF0.11874645948410034
aF0.11874741315841675
aF0.11863130331039429
aF0.11858028173446655
aF0.11929911375045776
aF0.11855119466781616
aF0.1185871958732605
aF0.11880415678024292
aF0.11865133047103882
asg15
F2
sg16
I10000
sg17
(F0.11865133047103882
F0.12084102630615234
F0.0021896958351135254
tp222
sbsS'SimpleIntFloatArithmetic'
p223
(iArithmetic
SimpleIntFloatArithmetic
p224
(dp225
g8
I110
sg9
(lp226
F0.00040770769119262694
aF0.00040745735168457031
asg11
I2
sg12
I10
sg13
(lp227
F0.098547697067260742
aF0.098567485809326172
aF0.0985565185546875
aF0.09855341911315918
aF0.098552465438842773
aF0.10317349433898926
aF0.098562479019165039
aF0.098558664321899414
aF0.098422527313232422
aF0.098550558090209961
asg15
F2
sg16
I12000
sg17
(F0.098550558090209961
F0.098958015441894531
F0.00040745735168457031
tp228
sbsS'CreateUnicodeWithConcat'
p229
(iUnicode
CreateUnicodeWithConcat
p230
(dp231
g8
I50
sg9
(lp232
F0.00027519464492797852
aF0.00027455091476440429
asg11
I2
sg12
I10
sg13
(lp233
F0.11002050638198853
aF0.098173487186431888
aF0.097610580921173098
aF0.099667418003082278
aF0.10815941095352173
aF0.097506392002105716
aF0.099519598484039309
aF0.10300456285476685
aF0.10910259485244751
aF0.10058127641677857
asg15
F2
sg16
I8000
sg17
(F0.10058127641677857
F0.10085582733154297
F0.00027455091476440429
tp234
sbsS'ListSlicing'
p235
(iLists
ListSlicing
p236
(dp237
g8
I175
sg9
(lp238
F7.9143047332763669e-05
aF7.9536437988281255e-05
asg11
I2
sg12
I10
sg13
(lp239
F0.13074804544448854
aF0.13209081888198854
aF0.13186980485916139
aF0.13215185403823854
aF0.13335276842117311
aF0.1352748990058899
aF0.13500500917434693
aF0.13247491121292115
aF0.13203383684158326
aF0.13206387758255006
asg15
F2
sg16
I80
sg17
(F0.13206387758255006
F0.13214302062988281
F7.9143047332763669e-05
tp240
sbsS'SimpleListComprehensions'
p241
(iLists
SimpleListComprehensions
p242
(dp243
g8
I6
sg9
(lp244
F7.2300434112548828e-05
aF7.1513652801513669e-05
asg11
I2
sg12
I10
sg13
(lp245
F0.10946847200393676
aF0.1109993577003479
aF0.1108014702796936
aF0.11105347871780395
aF0.11268855333328247
aF0.1115493893623352
aF0.11144639253616333
aF0.11169625520706176
aF0.11119557619094848
aF0.11052561998367309
asg15
F2
sg16
I2000
sg17
(F0.11052561998367309
F0.11059713363647461
F7.1513652801513669e-05
tp246
sbsS'CompareLongs'
p247
(iNumbers
CompareLongs
p248
(dp249
g8
I150
sg9
(lp250
F0.00023719072341918946
aF0.00023649930953979493
asg11
I2
sg12
I10
sg13
(lp251
F0.095193397998809812
aF0.09517027139663696
aF0.095174562931060788
aF0.09515954256057739
aF0.095183622837066648
aF0.095178616046905515
aF0.095194351673126218
aF0.095192444324493405
aF0.09517337083816528
aF0.095164549350738523
asg15
F2
sg16
I7000
sg17
(F0.095164549350738523
F0.09540104866027832
F0.00023649930953979493
tp252
sbsS'SimpleIntegerArithmetic'
p253
(iArithmetic
SimpleIntegerArithmetic
p254
(dp255
g8
I110
sg9
(lp256
F0.00041474103927612304
aF0.00041483640670776368
asg11
I2
sg12
I10
sg13
(lp257
F0.098379242420196536
aF0.098379242420196536
aF0.098360407352447513
aF0.09837828874588013
aF0.09837828874588013
aF0.10300527811050415
aF0.098387348651885989
aF0.098359215259552005
aF0.098248350620269778
aF0.098379242420196536
asg15
F2
sg16
I12000
sg17
(F0.098379242420196536
F0.098793983459472656
F0.00041474103927612304
tp258
sbsS'SpecialClassAttribute'
p259
(iLookups
SpecialClassAttribute
p260
(dp261
g8
I120
sg9
(lp262
F0.0003532886505126953
aF0.00035299062728881835
asg11
I2
sg12
I10
sg13
(lp263
F0.10871206521987915
aF0.10849915742874146
aF0.10836683511734009
aF0.10876904726028443
aF0.10868011713027954
aF0.11010299921035767
aF0.10871111154556275
aF0.1089790940284729
aF0.1085060715675354
aF0.10896097421646118
asg15
F2
sg16
I10000
sg17
(F0.10896097421646118
F0.10931396484375
F0.00035299062728881835
tp264
sbsS'SecondImport'
p265
(iImports
SecondImport
p266
(dp267
g8
I25
sg9
(lp268
F0.00013464689254760742
aF0.00013458728790283203
asg11
I2
sg12
I10
sg13
(lp269
F0.14723122119903564
aF0.13479149341583252
aF0.14367926120758057
aF0.14288723468780518
aF0.14569127559661865
aF0.14668953418731689
aF0.14435446262359619
aF0.13940751552581787
aF0.14193546772003174
aF0.14306843280792236
asg15
F2
sg16
I4000
sg17
(F0.14306843280792236
F0.1432030200958252
F0.00013458728790283203
tp270
sbsS'WithFinally'
p271
(iWith
WithFinally
p272
(dp273
g8
I20
sg9
(lp274
F0.00027503967285156248
aF0.00027550458908081054
asg11
I2
sg12
I10
sg13
(lp275
F0.14840278625488282
aF0.15334782600402833
aF0.15290699005126954
aF0.15458593368530274
aF0.14956889152526856
aF0.15182385444641114
aF0.15399394035339356
aF0.16913399696350098
aF0.15188989639282227
aF0.14966115951538086
asg15
F2
sg16
I8000
sg17
(F0.14966115951538086
F0.14993619918823242
F0.00027503967285156248
tp276
sbsS'TupleSlicing'
p277
(iTuples
TupleSlicing
p278
(dp279
g8
I5250
sg9
(lp280
F5.1844120025634763e-05
aF5.1701068878173827e-05
asg11
I2
sg12
I10
sg13
(lp281
F0.10598329305648804
aF0.10396937131881714
aF0.10071829557418824
aF0.10324314832687378
aF0.10328534841537476
aF0.10011128187179566
aF0.10145834684371949
aF0.10099629163742066
aF0.10119441747665406
aF0.10130027532577515
asg15
F2
sg16
I50
sg17
(F0.10130027532577515
F0.10135197639465332
F5.1701068878173827e-05
tp282
sbsS'SimpleFloatArithmetic'
p283
(iArithmetic
SimpleFloatArithmetic
p284
(dp285
g8
I110
sg9
(lp286
F0.00041373968124389646
aF0.00041368007659912107
asg11
I2
sg12
I10
sg13
(lp287
F0.099663233757019049
aF0.098113274574279791
aF0.097940421104431158
aF0.096758341789245611
aF0.098577237129211431
aF0.099858260154724127
aF0.099737381935119634
aF0.099788165092468267
aF0.099791502952575689
aF0.098176217079162603
asg15
F2
sg16
I12000
sg17
(F0.098176217079162603
F0.098589897155761719
F0.00041368007659912107
tp288
sbsS'StringPredicates'
p289
(iStrings
StringPredicates
p290
(dp291
g8
I70
sg9
(lp292
F0.0021942496299743653
aF0.002193748950958252
asg11
I2
sg12
I10
sg13
(lp293
F0.10605925321578979
aF0.10605734586715698
aF0.10606712102890015
aF0.10605925321578979
aF0.093638122081756592
aF0.093648135662078857
aF0.0936393141746521
aF0.093644320964813232
aF0.093632400035858154
aF0.093638122081756592
asg15
F2
sg16
I10000
sg17
(F0.093638122081756592
F0.095831871032714844
F0.002193748950958252
tp294
sbsS'BuiltinMethodLookup'
p295
(iLookups
BuiltinMethodLookup
p296
(dp297
g8
I150
sg9
(lp298
F0.00024514198303222657
aF0.00024369955062866213
asg11
I2
sg12
I10
sg13
(lp299
F0.088138306140899653
aF0.10659524202346801
aF0.10731431245803832
aF0.10657116174697875
aF0.10730119943618774
aF0.10658832788467407
aF0.10710045099258422
aF0.10634824037551879
aF0.10706135034561157
aF0.10633751153945922
asg15
F2
sg16
I7000
sg17
(F0.10633751153945922
F0.10658121109008789
F0.00024369955062866213
tp300
sbsS'SimpleComplexArithmetic'
p301
(iArithmetic
SimpleComplexArithmetic
p302
(dp303
g8
I110
sg9
(lp304
F0.00027583837509155275
aF0.00027579069137573242
asg11
I2
sg12
I10
sg13
(lp305
F0.10590726137161255
aF0.10569220781326294
aF0.10566502809524536
aF0.10352331399917603
aF0.10568124055862427
aF0.10569435358047485
aF0.1057010293006897
aF0.10572630167007446
aF0.10572606325149536
aF0.10352927446365356
asg15
F2
sg16
I8000
sg17
(F0.10352927446365356
F0.1038050651550293
F0.00027579069137573242
tp306
sbsS'ConcatUnicode'
p307
(iUnicode
ConcatUnicode
p308
(dp309
g8
I50
sg9
(lp310
F0.00029103755950927735
aF0.00029174089431762697
asg11
I2
sg12
I10
sg13
(lp311
F0.18611199855804444
aF0.18185503482818605
aF0.17661292552947999
aF0.17967398166656495
aF0.181908917427063
aF0.18192107677459718
aF0.19167311191558839
aF0.19212682247161866
aF0.20690400600433351
aF0.19170696735382081
asg15
F2
sg16
I6000
sg17
(F0.19170696735382081
F0.19199800491333008
F0.00029103755950927735
tp312
sbsS'CompareInternedStrings'
p313
(iStrings
CompareInternedStrings
p314
(dp315
g8
I50
sg9
(lp316
F0.0010455012321472167
aF0.0010451555252075195
asg11
I2
sg12
I10
sg13
(lp317
F0.11352975368499756
aF0.11335904598236084
aF0.11338169574737549
aF0.11335999965667724
aF0.11335570812225342
aF0.11336286067962646
aF0.11343295574188232
aF0.11342866420745849
aF0.11336190700531006
aF0.11336977481842041
asg15
F2
sg16
I30000
sg17
(F0.11336977481842041
F0.11441493034362793
F0.0010451555252075195
tp318
sbsS'CompareStrings'
p319
(iStrings
CompareStrings
p320
(dp321
g8
I50
sg9
(lp322
F0.00070199966430664065
aF0.00070304870605468754
asg11
I2
sg12
I10
sg13
(lp323
F0.11514415740966796
aF0.11508002281188964
aF0.115256929397583
aF0.11521806716918945
aF0.11522903442382812
aF0.11508693695068359
aF0.11511697769165039
aF0.11500205993652343
aF0.11495294570922851
aF0.11502089500427246
asg15
F2
sg16
I20000
sg17
(F0.11502089500427246
F0.1157228946685791
F0.00070199966430664065
tp324
sbsS'SmallTuples'
p325
(iTuples
SmallTuples
p326
(dp327
g8
I60
sg9
(lp328
F0.00030630826950073242
aF0.00030559301376342773
asg11
I2
sg12
I10
sg13
(lp329
F0.11869841814041138
aF0.11476737260818481
aF0.11582237482070923
aF0.11529737710952759
aF0.11774426698684692
aF0.11750847101211548
aF0.11614042520523071
aF0.11627918481826782
aF0.11654239892959595
aF0.11457544565200806
asg15
F2
sg16
I9000
sg17
(F0.11457544565200806
F0.11488103866577148
F0.00030559301376342773
tp330
sbsS'NormalClassAttribute'
p331
(iLookups
NormalClassAttribute
p332
(dp333
g8
I120
sg9
(lp334
F0.00034273862838745116
aF0.0003428936004638672
asg11
I2
sg12
I10
sg13
(lp335
F0.11070524454116822
aF0.11098514795303345
aF0.11097632646560669
aF0.11119424104690552
aF0.11066828966140747
aF0.11237035989761353
aF0.11067425012588501
aF0.1109622597694397
aF0.11079131364822388
aF0.11095319986343384
asg15
F2
sg16
I10000
sg17
(F0.11095319986343384
F0.11129593849182129
F0.00034273862838745116
tp336
sbsS'CreateInstances'
p337
(iInstances
CreateInstances
p338
(dp339
g8
I14
sg9
(lp340
F0.00028709173202514651
aF0.00028580427169799805
asg11
I2
sg12
I10
sg13
(lp341
F0.16260319948196411
aF0.16185218095779419
aF0.16895514726638794
aF0.1633191704750061
aF0.16055518388748169
aF0.16177111864089966
aF0.1647992730140686
aF0.159748375415802
aF0.16192418336868286
aF0.16112834215164185
asg15
F2
sg16
I8000
sg17
(F0.16112834215164185
F0.16141414642333984
F0.00028580427169799805
tp342
sbsS'DictWithStringKeys'
p343
(iDict
DictWithStringKeys
p344
(dp345
g8
I60
sg9
(lp346
F0.00070075988769531246
aF0.00070115327835083006
asg11
I2
sg12
I10
sg13
(lp347
F0.092510175704956052
aF0.092678260803222653
aF0.092300128936767575
aF0.092211198806762693
aF0.092114162445068357
aF0.093579244613647458
aF0.092114162445068357
aF0.092326116561889646
aF0.092306089401245114
aF0.09226722717285156
asg15
F2
sg16
I20000
sg17
(F0.09226722717285156
F0.092967987060546875
F0.00070075988769531246
tp348
sbsS'DictCreation'
p349
(iDict
DictCreation
p350
(dp351
g8
I50
sg9
(lp352
F0.0002718925476074219
aF0.00027239322662353516
asg11
I2
sg12
I10
sg13
(lp353
F0.087638282775878901
aF0.088563108444213862
aF0.088237190246582026
aF0.088488960266113276
aF0.088347101211547846
aF0.08834614753723144
aF0.088228130340576166
aF0.088318967819213862
aF0.088313007354736323
aF0.087216043472290034
asg15
F2
sg16
I8000
sg17
(F0.087216043472290034
F0.087487936019897461
F0.0002718925476074219
tp354
sbsS'StringSlicing'
p355
(iStrings
StringSlicing
p356
(dp357
g8
I35
sg9
(lp358
F0.00058479309082031254
aF0.00058463811874389651
asg11
I2
sg12
I10
sg13
(lp359
F0.09402939081192016
aF0.093941175937652582
aF0.093776428699493403
aF0.091361486911773676
aF0.092874491214752192
aF0.091064417362213129
aF0.091778242588043207
aF0.092095339298248285
aF0.090803349018096918
aF0.090716326236724848
asg15
F2
sg16
I16000
sg17
(F0.090716326236724848
F0.09130096435546875
F0.00058463811874389651
tp360
sbssS'name'
p361
S'/root/results/p27_issdm-6_1.pybench'
p362
sg11
I2
sg12
I10
sS'machine_details'
p363
(dp364
S'platform'
p365
S'Linux-3.13.0-88-generic-x86_64-with'
p366
sS'executable'
p367
S'/usr/local/bin/python'
p368
sS'builddate'
p369
S'Mar 19 2016 01:13:31'
p370
sS'unicode'
p371
S'UCS4'
p372
sS'implementation'
p373
S'CPython'
p374
sS'compiler'
p375
S'GCC 5.3.0'
p376
sS'bits'
p377
S'64bit'
p378
sS'processor'
p379
S''
sS'buildno'
p380
S'default'
p381
sS'python'
p382
S'2.7.11'
p383
ssS'timer'
p384
S'time.time'
p385
sg15
F2
sS'roundtimes'
p386
(lp387
F6.9293754696845999
aF6.9334872364997855
aF6.9381874203681937
aF6.9287727475166312
aF6.9396947026252738
aF6.9813273549079886
aF6.9326372742652884
aF6.9420428872108451
aF6.945791780948638
aF6.9256494641304007
asg16
I10
sS'verbose'
p388
I0
sb.