(i__main__
Benchmark
p1
(dp2
S'tests'
p3
(dp4
S'SpecialInstanceAttribute'
p5
(iLookups
SpecialInstanceAttribute
p6
(dp7
S'operations'
p8
I120
sS'overhead_times'
p9
(lp10
F0.0049524426460266112
aF0.0051508903503417972
aF0.0049513936042785648
aF0.0049512386322021484
aF0.0049520969390869137
aF0.00035084486007690429
aF0.0097518920898437503
aF0.0049513936042785648
aF0.0049513459205627443
aF0.0049513936042785648
aF0.00035043954849243162
aF0.0097521901130676273
aF0.0049512863159179689
aF0.0049514412879943844
aF0.00035054683685302733
aF0.0049515485763549803
aF0.0097523450851440437
aF0.0049514412879943844
aF0.00035014152526855467
aF0.0049514532089233402
asS'calibration_runs'
p11
I20
sS'timer'
p12
S'time.time'
p13
sS'times'
p14
(lp15
F1.799821949005127
aF1.8041988372802735
aF1.8963838577270509
aF1.8001948356628419
aF1.8959249019622804
aF1.7998498439788819
aF1.8000608444213868
aF1.799767827987671
aF1.7998858451843263
aF1.7997978687286378
asS'version'
p16
F2
sS'warp'
p17
I10
sS'rounds'
p18
I10000
sS'last_timing'
p19
(F1.7997978687286378
F1.8001480102539062
F0.00035014152526855467
tp20
sbsS'PythonFunctionCalls'
p21
(iCalls
PythonFunctionCalls
p22
(dp23
g8
I55
sg9
(lp24
F0.00021009445190429689
aF0.0048097968101501465
aF0.0050098419189453123
aF0.00021358728408813477
aF0.0048099398612976071
aF0.00020943880081176759
aF0.0048096418380737301
aF0.00020929574966430665
aF0.0048121452331542965
aF0.00021039247512817384
aF0.004809844493865967
aF0.0050104856491088867
aF0.0048096895217895506
aF0.00020934343338012694
aF0.0048097014427185055
aF0.00020920038223266603
aF0.004809749126434326
aF0.00020929574966430665
aF0.0048097848892211916
aF0.0050097942352294918
asg11
I20
sg12
g13
sg14
(lp25
F1.5024126887321472
aF1.5017846941947937
aF1.5951076865196228
aF1.5005806803703308
aF1.5023528456687927
aF1.5973016142845153
aF1.5949019312858581
aF1.5938948512077331
aF1.5013986945152282
aF1.5021637797355651
asg16
F2
sg17
I10
sg18
I6000
sg19
(F1.5021637797355651
F1.5023729801177979
F0.00020920038223266603
tp26
sbsS'CompareFloatsIntegers'
p27
(iNumbers
CompareFloatsIntegers
p28
(dp29
g8
I150
sg9
(lp30
F0.0002102375030517578
aF0.0048109412193298338
aF0.0048102974891662594
aF0.0002096414566040039
aF0.0048101902008056644
aF0.00020984411239624023
aF0.0048101902008056644
aF0.0050102949142456056
aF0.0002096414566040039
aF0.0048101902008056644
aF0.00020978450775146484
aF0.0048101902008056644
aF0.0002096414566040039
aF0.0048254370689392086
aF0.00020968914031982422
aF0.0048101902008056644
aF0.0050117850303649904
aF0.0048103451728820799
aF0.00020968914031982422
aF0.0048122406005859375
asg11
I20
sg12
g13
sg14
(lp31
F1.3989643335342408
aF1.3968843698501587
aF1.3985802412033081
aF1.3051182508468628
aF1.3014663934707642
aF1.3985792875289917
aF1.3984312295913697
aF1.3983034372329712
aF1.3983713865280152
aF1.3984193086624146
asg16
F2
sg17
I10
sg18
I6000
sg19
(F1.3984193086624146
F1.3986289501190186
F0.0002096414566040039
tp32
sbsS'PythonMethodCalls'
p33
(iCalls
PythonMethodCalls
p34
(dp35
g8
I75
sg9
(lp36
F0.00011093616485595703
aF0.00010849237442016602
aF0.004709982872009277
aF0.00010849237442016602
aF0.00010943412780761719
aF0.00010854005813598633
aF0.0047096967697143558
aF0.00010854005813598633
aF0.00010929107666015624
aF0.0047097325325012205
aF0.00010854005813598633
aF0.00010988712310791015
aF0.00010854005813598633
aF0.0047099351882934574
aF0.00010858774185180664
aF0.0049097895622253421
aF0.00010849237442016602
aF0.00010929107666015624
aF0.0047096848487854
aF0.00010854005813598633
asg11
I20
sg12
g13
sg14
(lp37
F2.0952005267143248
aF2.0953526377677916
aF2.0026864886283873
aF2.0988683581352232
aF2.0946054339408873
aF2.0015623450279234
aF2.0015344500541685
aF2.0057344317436216
aF1.9985403895378113
aF2.0980405688285826
asg16
F2
sg17
I10
sg18
I3000
sg19
(F2.0980405688285826
F2.0981490612030029
F0.00010849237442016602
tp38
sbsS'NestedListComprehensions'
p39
(iLists
NestedListComprehensions
p40
(dp41
g8
I6
sg9
(lp42
F7.1239471435546878e-05
aF7.0190429687499995e-05
aF7.0202350616455075e-05
aF0.0046717405319213869
aF7.0190429687499995e-05
aF7.0190429687499995e-05
aF7.0893764495849615e-05
aF7.0190429687499995e-05
aF0.0046711921691894535
aF7.0202350616455075e-05
aF7.0190429687499995e-05
aF7.0941448211669925e-05
aF7.0190429687499995e-05
aF7.0142745971679685e-05
aF0.0046712875366210936
aF7.0190429687499995e-05
aF7.0190429687499995e-05
aF0.0048713922500610348
aF7.0190429687499995e-05
aF7.0142745971679685e-05
asg11
I20
sg12
g13
sg14
(lp43
F1.7037946701049804
aF1.7013818740844726
aF1.7052888393402099
aF1.7024030208587646
aF1.795057725906372
aF1.7960407257080078
aF1.7042207241058349
aF1.7994307994842529
aF1.798330020904541
aF1.7004737377166748
asg16
F2
sg17
I10
sg18
I2000
sg19
(F1.7004737377166748
F1.7005438804626465
F7.0142745971679685e-05
tp44
sbsS'SecondSubmoduleImport'
p45
(iImports
SecondSubmoduleImport
p46
(dp47
g8
I25
sg9
(lp48
F0.0049410939216613771
aF0.00014059543609619142
aF0.0047409415245056154
aF0.00013984441757202147
aF0.00014173984527587891
aF0.0047410368919372555
aF0.00013984441757202147
aF0.00014054775238037109
aF0.0047408938407897949
aF0.00014059543609619142
aF0.00013979673385620118
aF0.0047408938407897949
aF0.0049408912658691403
aF0.00013983249664306641
aF0.00014059543609619142
aF0.0047410011291503908
aF0.00014050006866455077
aF0.00013984441757202147
aF0.0047410011291503908
aF0.00014050006866455077
asg11
I20
sg12
g13
sg14
(lp49
F3.1993652939796449
aF3.1954831242561341
aF3.1057161450386048
aF3.1035691857337953
aF3.2022620797157288
aF3.1044463276863099
aF3.1983482003211976
aF3.2956802010536195
aF3.200605070590973
aF3.2003361344337464
asg16
F2
sg17
I10
sg18
I4000
sg19
(F3.2003361344337464
F3.2004759311676025
F0.00013979673385620118
tp50
sbsS'DictWithIntegerKeys'
p51
(iDict
DictWithIntegerKeys
p52
(dp53
g8
I60
sg9
(lp54
F0.0053179383277893065
aF0.014719247817993164
aF0.0053177952766418459
aF0.0099185943603515622
aF0.014719390869140625
aF0.0053174972534179689
aF0.0099182844161987312
aF0.010117793083190918
aF0.0099186897277832031
aF0.014718747138977051
aF0.0053174972534179689
aF0.0099184393882751458
aF0.010117840766906739
aF0.0099187016487121589
aF0.014718997478485107
aF0.0053173422813415526
aF0.0099184989929199212
aF0.0099182486534118656
aF0.010118544101715088
aF0.0099189996719360359
asg11
I20
sg12
g13
sg14
(lp55
F1.3937576889991761
aF1.3935176014900208
aF1.3975967049598694
aF1.3975037217140198
aF1.4893716454505921
aF1.4896124482154847
aF1.3934918522834778
aF1.3945497155189515
aF1.489427673816681
aF1.3972538590431214
asg16
F2
sg17
I10
sg18
I20000
sg19
(F1.3972538590431214
F1.4025712013244629
F0.0053173422813415526
tp56
sbsS'UnicodeSlicing'
p57
(iUnicode
UnicodeSlicing
p58
(dp59
g8
I35
sg9
(lp60
F0.0051384449005126955
aF0.0099343895912170407
aF0.0051338434219360355
aF0.0097344517707824707
aF0.005133795738220215
aF0.0099343419075012211
aF0.0051333904266357422
aF0.0051332473754882816
aF0.0099343895912170407
aF0.0097342371940612789
aF0.0051329374313354489
aF0.0099351406097412109
aF0.0051337361335754396
aF0.0051332473754882816
aF0.0097354888916015622
aF0.009934735298156739
aF0.0051334381103515627
aF0.0051341414451599125
aF0.0097350478172302246
aF0.0099341869354248047
asg11
I20
sg12
g13
sg14
(lp61
F1.6899740457534791
aF1.5980851411819459
aF1.6933789014816285
aF1.5976001977920533
aF1.6897630453109742
aF1.6903760194778443
aF1.6945152044296266
aF1.7993891000747682
aF1.6923701524734498
aF1.597921109199524
asg16
F2
sg17
I10
sg18
I14000
sg19
(F1.597921109199524
F1.6030540466308594
F0.0051329374313354489
tp62
sbsS'NestedForLoops'
p63
(iConstructs
NestedForLoops
p64
(dp65
g8
I50000
sg9
(lp66
F2.8347969055175783e-05
aF0.0048284530639648438
aF2.7239322662353516e-05
aF2.7239322662353516e-05
aF2.7239322662353516e-05
aF2.7239322662353516e-05
aF2.7239322662353516e-05
aF2.7298927307128906e-05
aF2.8598308563232423e-05
aF2.7441978454589842e-05
aF2.7441978454589842e-05
aF2.7489662170410156e-05
aF2.7441978454589842e-05
aF2.7489662170410156e-05
aF2.7489662170410156e-05
aF0.0046288490295410155
aF2.7453899383544923e-05
aF2.7441978454589842e-05
aF2.7441978454589842e-05
aF2.7394294738769533e-05
asg11
I20
sg12
g13
sg14
(lp67
F1.4962939620018005
aF1.4961127638816833
aF1.4001206755638123
aF1.4961296916007996
aF1.4045397639274597
aF1.4040796160697937
aF1.4961089491844177
aF1.4001597762107849
aF1.4021677374839783
aF1.4968377947807312
asg16
F2
sg17
I10
sg18
I30
sg19
(F1.4968377947807312
F1.4968650341033936
F2.7239322662353516e-05
tp68
sbsS'UnicodePredicates'
p69
(iUnicode
UnicodePredicates
p70
(dp71
g8
I45
sg9
(lp72
F0.034974789619445799
aF0.034973943233489992
aF0.035176050662994382
aF0.034974539279937746
aF0.039775300025939944
aF0.034975385665893553
aF0.034979248046875001
aF0.035176396369934082
aF0.03497503995895386
aF0.034975290298461914
aF0.035174286365509032
aF0.034975492954254152
aF0.034975194931030275
aF0.039775741100311277
aF0.034975051879882812
aF0.035175096988677976
aF0.034974634647369385
aF0.034974539279937746
aF0.039777100086212158
aF0.034989547729492185
asg11
I20
sg12
g13
sg14
(lp73
F1.6624900460243226
aF1.563520109653473
aF1.6614231228828431
aF1.5638238549232484
aF1.5660089612007142
aF1.6598538517951966
aF1.6578771233558656
aF1.5629650712013246
aF1.5668810963630677
aF1.5628730416297913
asg16
F2
sg17
I10
sg18
I12000
sg19
(F1.5628730416297913
F1.5978469848632812
F0.034973943233489992
tp74
sbsS'ForLoops'
p75
(iConstructs
ForLoops
p76
(dp77
g8
I25
sg9
(lp78
F0.0046583890914916994
aF5.9700012207031245e-05
aF5.9795379638671878e-05
aF0.0048608422279357907
aF5.9950351715087888e-05
aF5.9747695922851568e-05
aF5.9795379638671878e-05
aF7.3552131652832031e-05
aF5.9843063354492188e-05
aF5.9700012207031245e-05
aF0.0046610474586486813
aF5.9783458709716797e-05
aF5.9747695922851568e-05
aF6.0546398162841794e-05
aF5.9700012207031245e-05
aF5.9747695922851568e-05
aF0.0046611428260803223
aF5.9735774993896487e-05
aF5.9735774993896487e-05
aF6.0486793518066404e-05
asg11
I20
sg12
g13
sg14
(lp79
F1.1935972213745116
aF1.1938542366027831
aF1.1019152641296386
aF1.1964065074920653
aF1.1018682956695556
aF1.1019031047821044
aF1.1023372650146483
aF1.101848268508911
aF1.1018382549285888
aF1.1938752174377441
asg16
F2
sg17
I10
sg18
I1000
sg19
(F1.1938752174377441
F1.1939349174499512
F5.9700012207031245e-05
tp80
sbsS'ConcatStrings'
p81
(iStrings
ConcatStrings
p82
(dp83
g8
I50
sg9
(lp84
F0.0050202965736389164
aF0.0050178408622741696
aF0.005017602443695068
aF0.0098171472549438473
aF0.0050172924995422362
aF0.0050180435180664064
aF0.0050174832344055172
aF0.009817850589752198
aF0.0050172448158264157
aF0.0050172924995422362
aF0.0050184369087219235
aF0.0050197958946228026
aF0.0050193905830383297
aF0.005219388008117676
aF0.0096205353736877434
aF0.0050196409225463871
aF0.0050192475318908691
aF0.005216646194458008
aF0.00501779317855835
aF0.005017495155334473
asg11
I20
sg12
g13
sg14
(lp85
F2.3925278544425965
aF2.493025815486908
aF2.4978866934776307
aF2.4001906275749207
aF2.4007578253746034
aF2.4882557749748231
aF2.4920008540153504
aF2.490931785106659
aF2.4922905325889588
aF2.3944197058677674
asg16
F2
sg17
I10
sg18
I10000
sg19
(F2.3944197058677674
F2.3994369506835938
F0.0050172448158264157
tp86
sbsS'SecondPackageImport'
p87
(iImports
SecondPackageImport
p88
(dp89
g8
I25
sg9
(lp90
F0.0047413349151611325
aF0.00014054775238037109
aF0.0001398921012878418
aF0.0047410368919372555
aF0.00014064311981201171
aF0.0001398921012878418
aF0.0047408938407897949
aF0.0049409389495849608
aF0.0001404881477355957
aF0.0001398921012878418
aF0.0047410488128662113
aF0.00014050006866455077
aF0.0001398921012878418
aF0.0047415375709533693
aF0.0001407027244567871
aF0.0047409415245056154
aF0.00013993978500366212
aF0.00014054775238037109
aF0.0047411918640136719
aF0.00013984441757202147
asg11
I20
sg12
g13
sg14
(lp91
F2.4066761612892149
aF2.5006741166114805
aF2.4972132325172423
aF2.4966581940650938
aF2.5957232594490049
aF2.4988201737403868
aF2.4043999791145323
aF2.5025421261787413
aF2.4951332688331602
aF2.4958783268928526
asg16
F2
sg17
I10
sg18
I4000
sg19
(F2.4958783268928526
F2.4960181713104248
F0.00013984441757202147
tp92
sbsS'CompareIntegers'
p93
(iNumbers
CompareIntegers
p94
(dp95
g8
I150
sg9
(lp96
F0.0050156354904174801
aF0.0050153374671936032
aF0.0050155997276306154
aF0.0052158474922180172
aF0.00501554012298584
aF0.005016040802001953
aF0.0050153970718383786
aF0.0098159432411193855
aF0.0050159454345703128
aF0.005015444755554199
aF0.0050153374671936032
aF0.0098159313201904297
aF0.005015444755554199
aF0.005015444755554199
aF0.0050154924392700195
aF0.0050152897834777836
aF0.0052154898643493649
aF0.0050153493881225589
aF0.0050153970718383786
aF0.0096164941787719727
asg11
I20
sg12
g13
sg14
(lp97
F1.49731787443161
aF1.4952057242393493
aF1.4967506766319274
aF1.5907598376274108
aF1.4967676043510436
aF1.4968016982078551
aF1.4970167517662047
aF1.4967697501182555
aF1.4967687964439391
aF1.4967625975608825
asg16
F2
sg17
I10
sg18
I12000
sg19
(F1.4967625975608825
F1.5017778873443604
F0.0050152897834777836
tp98
sbsS'CreateStringsWithConcat'
p99
(iStrings
CreateStringsWithConcat
p100
(dp101
g8
I50
sg9
(lp102
F0.0099037408828735359
aF0.0099031925201416016
aF0.010103797912597657
aF0.0099035859107971195
aF0.010103237628936768
aF0.0099033474922180179
aF0.0099026918411254886
aF0.010117685794830323
aF0.0099029421806335442
aF0.0099045872688293454
aF0.010103237628936768
aF0.0099032878875732425
aF0.010103094577789306
aF0.0099036931991577145
aF0.0053025484085083008
aF0.014703845977783203
aF0.0053024411201477049
aF0.014704096317291259
aF0.0099035859107971195
aF0.0053027987480163572
asg11
I20
sg12
g13
sg14
(lp103
F1.6928114771842957
aF1.6898054957389832
aF1.5999805808067322
aF1.5968885302543641
aF1.6884994387626648
aF1.6943144679069519
aF1.5988187670707703
aF1.6909603953361512
aF1.5981235384941102
aF1.6897296786308289
asg16
F2
sg17
I10
sg18
I20000
sg19
(F1.6897296786308289
F1.6950321197509766
F0.0053024411201477049
tp104
sbsS'SmallLists'
p105
(iLists
SmallLists
p106
(dp107
g8
I85
sg9
(lp108
F0.0048831939697265622
aF0.00028194189071655272
aF0.0096834421157836921
aF0.00028173923492431642
aF0.0048830509185791016
aF0.0048824310302734378
aF0.0002818942070007324
aF0.0048828363418579098
aF0.0048821926116943363
aF0.0050830960273742674
aF0.0048822999000549313
aF0.00028194189071655272
aF0.0048828959465026852
aF0.0048821449279785158
aF0.0048828840255737303
aF0.0050822973251342775
aF0.0048831462860107425
aF0.00028175115585327148
aF0.0048824429512023928
aF0.0048828959465026852
asg11
I20
sg12
g13
sg14
(lp109
F1.5982652425765991
aF1.5004592657089233
aF1.5045190572738647
aF1.5974462747573852
aF1.595145297050476
aF1.5987563848495483
aF1.5984023332595825
aF1.5984493017196655
aF1.5948673009872436
aF1.5951672315597534
asg16
F2
sg17
I10
sg18
I8000
sg19
(F1.5951672315597534
F1.5954489707946777
F0.00028173923492431642
tp110
sbsS'CompareUnicode'
p111
(iUnicode
CompareUnicode
p112
(dp113
g8
I50
sg9
(lp114
F0.0097393393516540527
aF0.0099372386932373054
aF0.0051364898681640625
aF0.005135750770568848
aF0.009937191009521484
aF0.0097370982170104977
aF0.0051358461380004881
aF0.0051370859146118164
aF0.009937191009521484
aF0.0051357388496398922
aF0.0097372412681579583
aF0.0099383473396301263
aF0.0051359415054321291
aF0.0051364898681640625
aF0.0097381472587585449
aF0.009937083721160889
aF0.0051364898681640625
aF0.0051368474960327148
aF0.0099374413490295414
aF0.0051361441612243651
asg11
I20
sg12
g13
sg14
(lp115
F1.4931311964988709
aF1.3967640757560731
aF1.4905343413352967
aF1.4905531764030457
aF1.4002974390983582
aF1.3945303320884705
aF1.3945141196250916
aF1.3975863814353944
aF1.3988962531089784
aF1.4905174136161805
asg16
F2
sg17
I10
sg18
I15000
sg19
(F1.4905174136161805
F1.4956531524658203
F0.0051357388496398922
tp116
sbsS'SimpleListManipulation'
p117
(iLists
SimpleListManipulation
p118
(dp119
g8
I90
sg9
(lp120
F0.0050569415092468258
aF0.0098578929901123047
aF0.0050565838813781735
aF0.0050579428672790526
aF0.0050566911697387694
aF0.0098577976226806637
aF0.0050566911697387694
aF0.0050566911697387694
aF0.0050576448440551756
aF0.0050568342208862308
aF0.0098569393157958984
aF0.0050579428672790526
aF0.0050565838813781735
aF0.0050566911697387694
aF0.0098570466041564934
aF0.0050574421882629396
aF0.0050566434860229489
aF0.0050569415092468258
aF0.009858143329620362
aF0.0050567865371704103
asg11
I20
sg12
g13
sg14
(lp121
F1.1902294516563416
aF1.1903872847557069
aF1.0979345202445985
aF1.098055398464203
aF1.1898565649986268
aF1.0980365633964539
aF1.1940555930137635
aF1.1900093913078309
aF1.0979924559593202
aF1.0980716109275819
asg16
F2
sg17
I10
sg18
I13000
sg19
(F1.0980716109275819
F1.10312819480896
F0.0050565838813781735
tp122
sbsS'DictWithFloatKeys'
p123
(iDict
DictWithFloatKeys
p124
(dp125
g8
I60
sg9
(lp126
F0.0097207903861999505
aF0.0099203467369079583
aF0.0051196932792663572
aF0.0051199913024902342
aF0.0099197506904602044
aF0.005120491981506348
aF0.0097203850746154785
aF0.0051193475723266598
aF0.0099203944206237796
aF0.0051193475723266598
aF0.0051198482513427736
aF0.0097206473350524899
aF0.0053194880485534666
aF0.0097204923629760735
aF0.0051191449165344238
aF0.0099204421043395993
aF0.0051198482513427736
aF0.0051193356513977049
aF0.0097204446792602539
aF0.0099212408065795891
asg11
I20
sg12
g13
sg14
(lp127
F1.5937597155570984
aF1.5936879515647888
aF1.5937768816947937
aF1.5940219759941101
aF1.5017609000205994
aF1.5940427184104919
aF1.5938610434532166
aF1.5944649577140808
aF1.5938219428062439
aF1.5944098830223083
asg16
F2
sg17
I10
sg18
I15000
sg19
(F1.5944098830223083
F1.5995290279388428
F0.0051191449165344238
tp128
sbsS'CreateNewInstances'
p129
(iNewInstances
CreateNewInstances
p130
(dp131
g8
I14
sg9
(lp132
F0.0049126505851745609
aF0.0051016449928283688
aF0.0049063920974731449
aF0.00030769109725952147
aF0.0049115419387817383
aF0.0049142956733703612
aF0.0049200415611267093
aF0.0049237489700317385
aF0.0051254510879516603
aF0.0049289941787719728
aF0.0049325942993164061
aF0.00033439397811889647
aF0.0049396872520446776
aF0.0097416400909423832
aF0.00034474134445190431
aF0.0049490928649902344
aF0.0049528956413269045
aF0.0049535393714904789
aF0.0097584366798400875
aF0.00036019086837768555
asg11
I20
sg12
g13
sg14
(lp133
F1.69729243516922
aF1.6058713078498841
aF1.7011462330818177
aF1.6968353867530823
aF1.6046022057533265
aF1.6955414891242981
aF1.6956361413002015
aF1.6052931427955628
aF1.6033724427223206
aF1.6037112355232239
asg16
F2
sg17
I10
sg18
I6000
sg19
(F1.6037112355232239
F1.6040189266204834
F0.00030769109725952147
tp134
sbsS'TryExcept'
p135
(iExceptions
TryExcept
p136
(dp137
g8
I150
sg9
(lp138
F0.0097316503524780273
aF0.0099312901496887204
aF0.0051301956176757809
aF0.0051308393478393553
aF0.009731388092041016
aF0.0053302884101867672
aF0.0097314476966857914
aF0.0051308870315551758
aF0.0099307417869567878
aF0.0051310420036315921
aF0.009731090068817139
aF0.0051302909851074219
aF0.009932291507720948
aF0.0051309943199157717
aF0.0051299929618835449
aF0.0097319483757019043
aF0.0099315881729125973
aF0.0051300406455993654
aF0.0051310896873474118
aF0.0099314928054809563
asg11
I20
sg12
g13
sg14
(lp139
F0.99814993143081665
aF0.99815994501113892
aF0.99815112352371216
aF1.0901868939399719
aF0.99838811159133911
aF1.0902150273323059
aF0.99814707040786743
aF0.99816304445266724
aF1.0901690125465393
aF1.0901690125465393
asg16
F2
sg17
I10
sg18
I15000
sg19
(F1.0901690125465393
F1.0952990055084229
F0.0051299929618835449
tp140
sbsS'ComplexPythonFunctionCalls'
p141
(iCalls
ComplexPythonFunctionCalls
p142
(dp143
g8
I20
sg9
(lp144
F0.0049544930458068851
aF0.0049535989761352543
aF0.0097532987594604499
aF0.0003520369529724121
aF0.0049527406692504881
aF0.0049525380134582521
aF0.0049526333808898922
aF0.0049624443054199219
aF0.0049531936645507814
aF0.0051529407501220703
aF0.004952645301818848
aF0.0049532532691955568
aF0.0049526929855346676
aF0.0049519419670104982
aF0.005152487754821777
aF0.0049526333808898922
aF0.004952645301818848
aF0.0049525856971740726
aF0.004953336715698242
aF0.0051529884338378908
asg11
I20
sg12
g13
sg14
(lp145
F1.7039970040321351
aF1.7031110405921936
aF1.7037719368934632
aF1.7973898530006409
aF1.7947400689125061
aF1.7055779576301575
aF1.799415934085846
aF1.7990268349647522
aF1.7966259598731995
aF1.7978919625282288
asg16
F2
sg17
I10
sg18
I10000
sg19
(F1.7978919625282288
F1.7982439994812012
F0.0003520369529724121
tp146
sbsS'TryRaiseExcept'
p147
(iExceptions
TryRaiseExcept
p148
(dp149
g8
I8
sg9
(lp150
F0.00028034448623657224
aF0.0048812031745910645
aF0.0048805356025695803
aF0.0048821926116943363
aF0.0002799868583679199
aF0.0048804998397827147
aF0.0050811529159545902
aF0.0048803448677062992
aF0.0048810362815856932
aF0.00028069019317626952
aF0.0048804879188537598
aF0.0049317479133605957
aF0.0048810005187988285
aF0.005080294609069824
aF0.00027989149093627931
aF0.0048812031745910645
aF0.0048804521560668942
aF0.0048812508583068849
aF0.0002799510955810547
aF0.0048804998397827147
asg11
I20
sg12
g13
sg14
(lp151
F1.6961052536964416
aF1.6041970372200012
aF1.5995621800422668
aF1.6038382172584533
aF1.6959400296211242
aF1.6971793293952941
aF1.6998660683631897
aF1.6019449353218078
aF1.696451199054718
aF1.6019990563392639
asg16
F2
sg17
I10
sg18
I8000
sg19
(F1.6019990563392639
F1.6022789478302002
F0.00027989149093627931
tp152
sbsS'IfThenElse'
p153
(iConstructs
IfThenElse
p154
(dp155
g8
I90
sg9
(lp156
F0.0051308393478393553
aF0.0097319364547729485
aF0.0099311947822570794
aF0.0051309347152709963
aF0.0051308870315551758
aF0.0099314928054809563
aF0.0051302433013916014
aF0.0097317934036254879
aF0.0099312901496887204
aF0.0051303386688232424
aF0.0051315426826477051
aF0.00973118543624878
aF0.0053303480148315426
aF0.009731495380401611
aF0.0051308393478393553
aF0.0099306941032409664
aF0.005131649971008301
aF0.0097314357757568356
aF0.0051303505897521973
aF0.0099313020706176761
asg11
I20
sg12
g13
sg14
(lp157
F1.0992057800292969
aF1.0991998195648194
aF1.1913648128509522
aF1.1912765979766846
aF1.1916878700256348
aF1.1948488235473633
aF1.1912107944488526
aF1.1912508487701416
aF1.191305685043335
aF1.0992355823516846
asg16
F2
sg17
I10
sg18
I15000
sg19
(F1.0992355823516846
F1.1043658256530762
F0.0051302433013916014
tp158
sbsS'NormalInstanceAttribute'
p159
(iLookups
NormalInstanceAttribute
p160
(dp161
g8
I120
sg9
(lp162
F0.0097623944282531731
aF0.004961347579956055
aF0.004961550235748291
aF0.0049610495567321781
aF0.0003600955009460449
aF0.0097617864608764652
aF0.0049645423889160155
aF0.004961848258972168
aF0.0049611926078796387
aF0.0049614429473876951
aF0.0051615357398986815
aF0.0049616932868957516
aF0.0049615383148193361
aF0.0049610495567321781
aF0.0049610972404479977
aF0.00036113262176513673
aF0.0097623467445373535
aF0.0049611449241638182
aF0.0049611449241638182
aF0.0049612879753112796
asg11
I20
sg12
g13
sg14
(lp163
F1.3001059651374818
aF1.3004628777503968
aF1.3038329243659974
aF1.3004960179328919
aF1.3002249360084535
aF1.3002719044685365
aF1.3000339627265931
aF1.3040348649024964
aF1.396020805835724
aF1.3000239491462708
asg16
F2
sg17
I10
sg18
I10000
sg19
(F1.3000239491462708
F1.3003840446472168
F0.0003600955009460449
tp164
sbsS'BuiltinFunctionCalls'
p165
(iCalls
BuiltinFunctionCalls
p166
(dp167
g8
I85
sg9
(lp168
F0.0048115491867065426
aF0.00020763874053955078
aF0.004807591438293457
aF0.00020699501037597657
aF0.0048074960708618161
aF0.00020719766616821288
aF0.0048075437545776365
aF0.0050075888633728024
aF0.00020699501037597657
aF0.004807591438293457
aF0.0048082470893859863
aF0.0002070307731628418
aF0.0048075437545776365
aF0.00020699501037597657
aF0.0049296975135803226
aF0.00020719766616821288
aF0.0048074960708618161
aF0.00020694732666015625
aF0.0048078417778015135
aF0.0048085451126098633
asg11
I20
sg12
g13
sg14
(lp169
F1.7996871471405029
aF1.7034511566162109
aF1.7985231876373291
aF1.70359206199646
aF1.801361083984375
aF1.7016279697418213
aF1.7959182262420654
aF1.7047150135040283
aF1.7047362327575684
aF1.8925111293792725
asg16
F2
sg17
I10
sg18
I6000
sg19
(F1.8925111293792725
F1.8927180767059326
F0.00020694732666015625
tp170
sbsS'UnicodeMappings'
p171
(iUnicode
UnicodeMappings
p172
(dp173
g8
I36
sg9
(lp174
F0.0097418427467346191
aF0.005132138729095459
aF0.0099343895912170407
aF0.0051332831382751463
aF0.0051326870918273924
aF0.0099344968795776374
aF0.0097345471382141117
aF0.0051327347755432129
aF0.009934747219085693
aF0.0051334977149963381
aF0.0097360372543334964
aF0.0051336407661437987
aF0.0099357843399047845
aF0.0051343917846679689
aF0.0051333904266357422
aF0.0097348928451538082
aF0.0099351525306701667
aF0.0051337838172912601
aF0.0051342368125915526
aF0.0099352955818176273
asg11
I20
sg12
g13
sg14
(lp175
F1.9938216805458069
aF1.9952517151832581
aF1.8995397686958313
aF1.9951208233833313
aF1.9910569787025452
aF1.9002407193183899
aF1.995286762714386
aF1.9946346879005432
aF2.0881648659706116
aF1.9949079155921936
asg16
F2
sg17
I10
sg18
I1000
sg19
(F1.9949079155921936
F2.0000400543212891
F0.005132138729095459
tp176
sbsS'CompareFloats'
p177
(iNumbers
CompareFloats
p178
(dp179
g8
I150
sg9
(lp180
F0.0048774361610412599
aF0.0048767924308776855
aF0.00027599334716796873
aF0.009677791595458984
aF0.00027589797973632814
aF0.004877138137817383
aF0.0048763871192932127
aF0.0002763986587524414
aF0.0048772454261779789
aF0.0048763871192932127
aF0.0050769925117492678
aF0.0048763871192932127
aF0.00027599334716796873
aF0.0048770904541015625
aF0.0048763871192932127
aF0.0048769474029541019
aF0.00027608871459960938
aF0.0049326539039611815
aF0.004876351356506348
aF0.0050763487815856934
asg11
I20
sg12
g13
sg14
(lp181
F1.4951478958129882
aF1.400916051864624
aF1.4031242847442627
aF1.4952690124511718
aF1.4030980587005615
aF1.3991159915924072
aF1.39911789894104
aF1.3070971488952636
aF1.3979200839996337
aF1.3991081237792968
asg16
F2
sg17
I10
sg18
I8000
sg19
(F1.3991081237792968
F1.3993840217590332
F0.00027589797973632814
tp182
sbsS'StringMappings'
p183
(iStrings
StringMappings
p184
(dp185
g8
I36
sg9
(lp186
F0.004966449737548828
aF0.0049613833427429197
aF0.0097616434097290046
aF0.0049607515335083011
aF0.00036025047302246094
aF0.0049653887748718258
aF0.004962038993835449
aF0.0097612977027893063
aF0.0049610495567321781
aF0.00036004781723022463
aF0.0049616336822509762
aF0.0049649953842163088
aF0.0097607016563415524
aF0.0049608945846557617
aF0.0049614429473876951
aF0.00036019086837768555
aF0.0049612998962402345
aF0.0097619891166687012
aF0.0049611926078796387
aF0.0049611926078796387
asg11
I20
sg12
g13
sg14
(lp187
F1.2999539017677306
aF1.2954699635505675
aF1.3004560112953185
aF1.2959627747535705
aF1.2961217999458312
aF1.3010551571846007
aF1.3002450108528136
aF1.2998499512672423
aF1.3006469845771789
aF1.2997798562049865
asg16
F2
sg17
I10
sg18
I7000
sg19
(F1.2997798562049865
F1.3001399040222168
F0.00036004781723022463
tp188
sbsS'TryFinally'
p189
(iWith
TryFinally
p190
(dp191
g8
I20
sg9
(lp192
F0.0048795938491821289
aF0.0048795938491821289
aF0.00027844905853271487
aF0.0048788905143737791
aF0.0048802375793457033
aF0.0050789475440979007
aF0.0048795342445373535
aF0.00027854442596435546
aF0.0048788428306579586
aF0.0048798918724060059
aF0.00027844905853271487
aF0.0096801996231079095
aF0.00027844905853271487
aF0.004878997802734375
aF0.0048795938491821289
aF0.00027853250503540039
aF0.0048799395561218263
aF0.0048790454864501955
aF0.0050789952278137204
aF0.0048795461654663084
asg11
I20
sg12
g13
sg14
(lp193
F1.7003853559494018
aF1.7969854116439818
aF1.7963044881820678
aF1.7005195856094359
aF1.79901864528656
aF1.800901436805725
aF1.7921374082565307
aF1.7928755521774291
aF1.7044945001602172
aF1.699970507621765
asg16
F2
sg17
I10
sg18
I8000
sg19
(F1.699970507621765
F1.7002489566802979
F0.00027844905853271487
tp194
sbsS'Recursion'
p195
(iCalls
Recursion
p196
(dp197
g8
I5
sg9
(lp198
F0.0049540996551513672
aF0.0049539923667907713
aF0.0049540400505065918
aF0.000353085994720459
aF0.0097546458244323724
aF0.0049538373947143558
aF0.0049539446830749508
aF0.00035388469696044921
aF0.0049539446830749508
aF0.0097542405128479004
aF0.0049541473388671877
aF0.0049538373947143558
aF0.00035274028778076172
aF0.0049539923667907713
aF0.0097546458244323724
aF0.0049537897109985353
aF0.00035278797149658204
aF0.0049542903900146483
aF0.0049541473388671877
aF0.0097547411918640133
asg11
I20
sg12
g13
sg14
(lp199
F2.0064424276351929
aF2.0073343515396118
aF2.0988363027572632
aF2.0979713201522827
aF2.0061031579971313
aF2.0982741117477417
aF2.0995062589645386
aF2.0979381799697876
aF2.0989021062850952
aF2.099021315574646
asg16
F2
sg17
I10
sg18
I10000
sg19
(F2.099021315574646
F2.0993740558624268
F0.00035274028778076172
tp200
sbsS'SimpleLongArithmetic'
p201
(iArithmetic
SimpleLongArithmetic
p202
(dp203
g8
I110
sg9
(lp204
F0.0048119425773620605
aF0.00021119117736816405
aF0.0048114418983459476
aF0.00021098852157592775
aF0.0048114418983459476
aF0.0050114870071411135
aF0.00021109580993652343
aF0.0048120498657226564
aF0.0048124432563781735
aF0.00021103620529174804
aF0.0048236846923828125
aF0.00021125078201293944
aF0.0048114418983459476
aF0.005011439323425293
aF0.00021178722381591796
aF0.0048116445541381836
aF0.00021120309829711915
aF0.0048115968704223631
aF0.00021098852157592775
aF0.0048114538192749025
asg11
I20
sg12
g13
sg14
(lp205
F1.1996190667152404
aF1.1998069405555725
aF1.1960730671882629
aF1.1996910691261291
aF1.1033849835395813
aF1.1949961304664611
aF1.1962871670722961
aF1.199578058719635
aF1.1986539483070373
aF1.1028580784797668
asg16
F2
sg17
I10
sg18
I6000
sg19
(F1.1028580784797668
F1.1030690670013428
F0.00021098852157592775
tp206
sbsS'SimpleDictManipulation'
p207
(iDict
SimpleDictManipulation
p208
(dp209
g8
I120
sg9
(lp210
F0.0049518942832946777
aF0.00035034418106079103
aF0.0097517848014831536
aF0.0049519419670104982
aF0.0049516439437866213
aF0.00035023689270019531
aF0.0049515366554260254
aF0.009751737117767334
aF0.004952645301818848
aF0.00035023689270019531
aF0.0049514412879943844
aF0.0049512505531311033
aF0.0049515008926391598
aF0.0097518920898437503
aF0.0003502964973449707
aF0.0049514412879943844
aF0.0049517393112182614
aF0.0049512982368469238
aF0.004950594902038574
aF0.0051514387130737306
asg11
I20
sg12
g13
sg14
(lp211
F1.398500919342041
aF1.3944458961486816
aF1.3023228645324707
aF1.3942677974700928
aF1.3025248050689697
aF1.398411750793457
aF1.4004466533660889
aF1.3982279300689697
aF1.3063466548919678
aF1.3982429504394531
asg16
F2
sg17
I10
sg18
I10000
sg19
(F1.3982429504394531
F1.3985931873321533
F0.00035023689270019531
tp212
sbsS'WithRaiseExcept'
p213
(iWith
WithRaiseExcept
p214
(dp215
g8
I8
sg9
(lp216
F0.0049552440643310545
aF0.0049535870552062985
aF0.0049542903900146483
aF0.0049539923667907713
aF0.0051540851593017576
aF0.0049535989761352543
aF0.0049546957015991211
aF0.0049543499946594237
aF0.004954993724822998
aF0.005153942108154297
aF0.0049535989761352543
aF0.004954802989959717
aF0.0049543023109436032
aF0.0049540400505065918
aF0.0051533460617065431
aF0.0049543499946594237
aF0.0049542427062988278
aF0.0049541473388671877
aF0.0049548387527465817
aF0.0051532864570617678
asg11
I20
sg12
g13
sg14
(lp217
F3.4927704691886903
aF3.39813951253891
aF3.5878215193748475
aF3.3940432429313661
aF3.4914174437522889
aF3.3959334254264832
aF3.4934172987937928
aF3.3950453162193299
aF3.3992653250694276
aF3.3959555983543397
asg16
F2
sg17
I10
sg18
I10000
sg19
(F3.3959555983543397
F3.4009091854095459
F0.0049535870552062985
tp218
sbsS'UnicodeProperties'
p219
(iUnicode
UnicodeProperties
p220
(dp221
g8
I40
sg9
(lp222
F0.02537083625793457
aF0.029970848560333253
aF0.034771192073822024
aF0.029971945285797118
aF0.0299721360206604
aF0.029969942569732667
aF0.029970192909240724
aF0.029970192909240724
aF0.025370347499847411
aF0.034771645069122316
aF0.029969692230224609
aF0.029970395565032958
aF0.029969882965087891
aF0.029971385002136232
aF0.029971337318420409
aF0.025368690490722656
aF0.034769845008850095
aF0.029971337318420409
aF0.029970490932464601
aF0.02996964454650879
asg11
I20
sg12
g13
sg14
(lp223
F1.5814533233642578
aF1.6738443374633789
aF1.6762833595275879
aF1.6755893230438232
aF1.6778342723846436
aF1.5814011096954346
aF1.675065279006958
aF1.674551248550415
aF1.5797574520111084
aF1.6738522052764893
asg16
F2
sg17
I10
sg18
I10000
sg19
(F1.6738522052764893
F1.6992208957672119
F0.025368690490722656
tp224
sbsS'SimpleIntFloatArithmetic'
p225
(iArithmetic
SimpleIntFloatArithmetic
p226
(dp227
g8
I110
sg9
(lp228
F0.0050182938575744629
aF0.0052183389663696287
aF0.0050183415412902834
aF0.0050180912017822269
aF0.0050186991691589357
aF0.0098212480545043952
aF0.0050182342529296875
aF0.0050183892250061039
aF0.0050181388854980465
aF0.009820199012756348
aF0.0050183415412902834
aF0.0050182938575744629
aF0.005018186569213867
aF0.0050190448760986332
aF0.0050181984901428219
aF0.0098191022872924812
aF0.0050184011459350588
aF0.0050186991691589357
aF0.0050184965133666989
aF0.0052184462547302246
asg11
I20
sg12
g13
sg14
(lp229
F1.3924860000610351
aF1.3918138980865478
aF1.2967208862304687
aF1.3924829006195067
aF1.2947739601135253
aF1.296230936050415
aF1.3003207683563232
aF1.3919548034667968
aF1.3007399082183837
aF1.3922089576721191
asg16
F2
sg17
I10
sg18
I12000
sg19
(F1.3922089576721191
F1.3972270488739014
F0.0050180912017822269
tp230
sbsS'CreateUnicodeWithConcat'
p231
(iUnicode
CreateUnicodeWithConcat
p232
(dp233
g8
I50
sg9
(lp234
F0.0048814535140991209
aF0.0048803925514221188
aF0.0050803422927856445
aF0.0048811435699462891
aF0.00027984380722045898
aF0.0048810958862304686
aF0.0048808932304382326
aF0.0002799868583679199
aF0.0096817374229431156
aF0.00027989149093627931
aF0.0048812031745910645
aF0.0048804402351379393
aF0.00028039216995239257
aF0.0048811435699462891
aF0.0048803925514221188
aF0.0050809860229492189
aF0.0048804402351379393
aF0.0048810005187988285
aF0.00028004646301269529
aF0.0048803925514221188
asg11
I20
sg12
g13
sg14
(lp235
F1.1988220810890198
aF1.1992080807685852
aF1.197442352771759
aF1.2027741074562073
aF1.201799213886261
aF1.1986520886421204
aF1.1985283493995667
aF1.1993291974067688
aF1.1977642178535461
aF1.1977441906929016
asg16
F2
sg17
I10
sg18
I8000
sg19
(F1.1977441906929016
F1.1980240345001221
F0.00027984380722045898
tp236
sbsS'ListSlicing'
p237
(iLists
ListSlicing
p238
(dp239
g8
I175
sg9
(lp240
F7.9691410064697266e-05
aF8.0537796020507815e-05
aF8.0239772796630862e-05
aF0.0046814918518066403
aF8.0239772796630862e-05
aF8.0239772796630862e-05
aF8.1086158752441412e-05
aF8.0239772796630862e-05
aF0.0046815037727355961
aF8.0251693725585943e-05
aF8.0239772796630862e-05
aF8.1038475036621088e-05
aF8.0239772796630862e-05
aF0.0046809434890747069
aF7.9095363616943359e-05
aF7.9941749572753909e-05
aF8.0239772796630862e-05
aF8.0239772796630862e-05
aF0.0046813368797302248
aF8.0239772796630862e-05
asg11
I20
sg12
g13
sg14
(lp241
F1.8992119431495667
aF1.8985288739204407
aF1.8987868428230286
aF1.8070488572120667
aF1.8995378613471985
aF1.8957350850105286
aF1.8065319657325745
aF1.8065047860145569
aF1.8981838822364807
aF1.8980069756507874
asg16
F2
sg17
I10
sg18
I80
sg19
(F1.8980069756507874
F1.8980860710144043
F7.9095363616943359e-05
tp242
sbsS'SimpleListComprehensions'
p243
(iLists
SimpleListComprehensions
p244
(dp245
g8
I6
sg9
(lp246
F7.0846080780029291e-05
aF7.0095062255859375e-05
aF7.0941448211669925e-05
aF7.0142745971679685e-05
aF0.0046711921691894535
aF7.0238113403320318e-05
aF7.0190429687499995e-05
aF0.0048712491989135742
aF7.0142745971679685e-05
aF7.0190429687499995e-05
aF7.1036815643310544e-05
aF7.0190429687499995e-05
aF7.0190429687499995e-05
aF0.0046713948249816895
aF7.0142745971679685e-05
aF7.0190429687499995e-05
aF7.0893764495849615e-05
aF7.0202350616455075e-05
aF0.0046732425689697266
aF7.0190429687499995e-05
asg11
I20
sg12
g13
sg14
(lp247
F1.5017859935760498
aF1.5017848014831543
aF1.5020198822021484
aF1.5945868492126465
aF1.5036509037017822
aF1.5033259391784668
aF1.5062150955200195
aF1.5031700134277344
aF1.5003278255462646
aF1.5963280200958252
asg16
F2
sg17
I10
sg18
I2000
sg19
(F1.5963280200958252
F1.5963981151580811
F7.0095062255859375e-05
tp248
sbsS'CompareLongs'
p249
(iNumbers
CompareLongs
p250
(dp251
g8
I150
sg9
(lp252
F0.0048630833625793457
aF0.0048632979393005375
aF0.00026218891143798829
aF0.0048626422882080082
aF0.0048635005950927734
aF0.005062592029571533
aF0.00026215314865112304
aF0.0048641920089721683
aF0.0048626899719238278
aF0.00026223659515380862
aF0.004863440990447998
aF0.0048627376556396483
aF0.005062592029571533
aF0.0048633933067321776
aF0.00026220083236694336
aF0.0048629999160766605
aF0.004863536357879639
aF0.00026218891143798829
aF0.0048626899719238278
aF0.0050633907318115238
asg11
I20
sg12
g13
sg14
(lp253
F1.3946758389472962
aF1.303171980381012
aF1.3028789639472962
aF1.3988176465034485
aF1.3062637925148011
aF1.3991089940071106
aF1.3991147160530091
aF1.3989809632301331
aF1.3952208638191224
aF1.3020278096199036
asg16
F2
sg17
I10
sg18
I7000
sg19
(F1.3020278096199036
F1.3022899627685547
F0.00026215314865112304
tp254
sbsS'SimpleIntegerArithmetic'
p255
(iArithmetic
SimpleIntegerArithmetic
p256
(dp257
g8
I110
sg9
(lp258
F0.0050243377685546872
aF0.0050252914428710934
aF0.005024445056915283
aF0.0098251461982727054
aF0.005024242401123047
aF0.0050241947174072266
aF0.005024242401123047
aF0.0098248958587646481
aF0.0050242900848388675
aF0.0050240874290466307
aF0.0050247907638549805
aF0.009825587272644043
aF0.0050241470336914061
aF0.0050241470336914061
aF0.0050241351127624512
aF0.0050244927406311035
aF0.0050243496894836429
aF0.0052242398262023924
aF0.0096256971359252926
aF0.005024242401123047
asg11
I20
sg12
g13
sg14
(lp259
F1.2970677495002747
aF1.2963110089302063
aF1.3927498936653138
aF1.2969690442085267
aF1.3914009213447571
aF1.3921669602394104
aF1.3886150002479554
aF1.2962099194526673
aF1.3926769375801087
aF1.2963389039039612
asg16
F2
sg17
I10
sg18
I12000
sg19
(F1.2963389039039612
F1.3013629913330078
F0.0050240874290466307
tp260
sbsS'SpecialClassAttribute'
p261
(iLookups
SpecialClassAttribute
p262
(dp263
g8
I120
sg9
(lp264
F0.00035189390182495118
aF0.0049515843391418459
aF0.0049507379531860355
aF0.004951190948486328
aF0.0049503922462463381
aF0.0051509380340576168
aF0.0049507975578308109
aF0.004950892925262451
aF0.0049501419067382816
aF0.0049508452415466305
aF0.0051509380340576168
aF0.0049511432647705075
aF0.0049500465393066406
aF0.0049508452415466305
aF0.004951381683349609
aF0.0049510478973388674
aF0.0051506400108337399
aF0.0049500942230224611
aF0.0049508452415466305
aF0.0049516916275024418
asg11
I20
sg12
g13
sg14
(lp265
F1.5942061066627502
aF1.4990661263465881
aF1.5968210816383361
aF1.5049982190132141
aF1.5045471310615539
aF1.597114098072052
aF1.5965082764625549
aF1.5966901898384094
aF1.5963759541511535
aF1.5965881466865539
asg16
F2
sg17
I10
sg18
I10000
sg19
(F1.5965881466865539
F1.5969400405883789
F0.00035189390182495118
tp266
sbsS'SecondImport'
p267
(iImports
SecondImport
p268
(dp269
g8
I25
sg9
(lp270
F0.00014069080352783204
aF0.00013983249664306641
aF0.0047408938407897949
aF0.00014050006866455077
aF0.00013984441757202147
aF0.0047411441802978514
aF0.00014054775238037109
aF0.0047409415245056154
aF0.00013990402221679686
aF0.00014054775238037109
aF0.0047410488128662113
aF0.00013983249664306641
aF0.0001404881477355957
aF0.0047411441802978514
aF0.0049409031867980961
aF0.00013984441757202147
aF0.00014044046401977538
aF0.0047410964965820309
aF0.00013983249664306641
aF0.00014098882675170899
asg11
I20
sg12
g13
sg14
(lp271
F2.393004298210144
aF2.2985721826553345
aF2.2992812395095825
aF2.2982653379440308
aF2.3985360860824585
aF2.3026250600814819
aF2.2985471487045288
aF2.2992051839828491
aF2.3044561147689819
aF2.305219292640686
asg16
F2
sg17
I10
sg18
I4000
sg19
(F2.305219292640686
F2.3053591251373291
F0.00013983249664306641
tp272
sbsS'WithFinally'
p273
(iWith
WithFinally
p274
(dp275
g8
I20
sg9
(lp276
F0.00027924776077270508
aF0.0048789858818054201
aF0.0048793911933898929
aF0.00027843713760375974
aF0.0096801877021789554
aF0.00027829408645629883
aF0.004878795146942139
aF0.0048795938491821289
aF0.0002786993980407715
aF0.0048796415328979494
aF0.0048789381980895996
aF0.0050787925720214844
aF0.0048793911933898929
aF0.00027829408645629883
aF0.0048797488212585453
aF0.0048789381980895996
aF0.00027828216552734376
aF0.0096801400184631341
aF0.00027835369110107422
aF0.0048793911933898929
asg11
I20
sg12
g13
sg14
(lp277
F2.1992527961730959
aF2.2969066619873049
aF2.2032868385314943
aF2.296385717391968
aF2.2017817020416262
aF2.1998166561126711
aF2.2034205913543703
aF2.2936887264251711
aF2.2980787277221681
aF2.2979466438293459
asg16
F2
sg17
I10
sg18
I8000
sg19
(F2.2979466438293459
F2.298224925994873
F0.00027828216552734376
tp278
sbsS'TupleSlicing'
p279
(iTuples
TupleSlicing
p280
(dp281
g8
I5250
sg9
(lp282
F5.245208740234375e-05
aF5.13911247253418e-05
aF5.1343441009521483e-05
aF5.2595138549804686e-05
aF5.2535533905029296e-05
aF5.2535533905029296e-05
aF5.2487850189208986e-05
aF0.004653644561767578
aF5.249977111816406e-05
aF5.249977111816406e-05
aF5.3501129150390626e-05
aF5.2547454833984376e-05
aF5.2547454833984376e-05
aF5.2535533905029296e-05
aF0.0046538829803466795
aF5.249977111816406e-05
aF5.249977111816406e-05
aF5.2392482757568359e-05
aF5.3238868713378909e-05
aF5.2392482757568359e-05
asg11
I20
sg12
g13
sg14
(lp283
F1.4014226555824281
aF1.4954935669898988
aF1.4020055890083314
aF1.4950255513191224
aF1.404652750492096
aF1.4005416989326478
aF1.3062435746192933
aF1.5013646245002747
aF1.4044615387916566
aF1.4025975823402406
asg16
F2
sg17
I10
sg18
I50
sg19
(F1.4025975823402406
F1.40264892578125
F5.1343441009521483e-05
tp284
sbsS'SimpleFloatArithmetic'
p285
(iArithmetic
SimpleFloatArithmetic
p286
(dp287
g8
I110
sg9
(lp288
F0.0050246000289916994
aF0.0050243496894836429
aF0.0096253514289855961
aF0.0052245974540710447
aF0.0050244927406311035
aF0.0050244927406311035
aF0.0050243973731994625
aF0.0098248481750488285
aF0.0050243496894836429
aF0.0050250411033630369
aF0.0050243973731994625
aF0.0098253369331359856
aF0.005024540424346924
aF0.0050246000289916994
aF0.0050245523452758789
aF0.0050243020057678224
aF0.0050257921218872072
aF0.0098259449005126953
aF0.0050242900848388675
aF0.005024445056915283
asg11
I20
sg12
g13
sg14
(lp289
F1.2957617282867431
aF1.2998796939849853
aF1.3913876056671142
aF1.3003398418426513
aF1.2995437622070312
aF1.391835594177246
aF1.2960819244384765
aF1.2954997062683105
aF1.3877107143402099
aF1.2952658176422118
asg16
F2
sg17
I10
sg18
I12000
sg19
(F1.2952658176422118
F1.3002901077270508
F0.0050242900848388675
tp290
sbsS'StringPredicates'
p291
(iStrings
StringPredicates
p292
(dp293
g8
I70
sg9
(lp294
F0.025348734855651856
aF0.029946744441986084
aF0.029947197437286376
aF0.03474714756011963
aF0.025145983695983885
aF0.030146694183349608
aF0.029946446418762207
aF0.029946637153625489
aF0.029947185516357423
aF0.029947650432586671
aF0.029946696758270264
aF0.030146491527557374
aF0.029946184158325194
aF0.029947996139526367
aF0.0299471378326416
aF0.029947149753570556
aF0.025345683097839355
aF0.029946839809417723
aF0.034748196601867676
aF0.029946994781494141
asg11
I20
sg12
g13
sg14
(lp295
F1.4769950151443481
aF1.4774971246719359
aF1.4766021013259887
aF1.4759450197219848
aF1.4773280858993529
aF1.4785762071609496
aF1.4761650800704955
aF1.477947974205017
aF1.4743190050125121
aF1.4774909257888793
asg16
F2
sg17
I10
sg18
I10000
sg19
(F1.4774909257888793
F1.5026369094848633
F0.025145983695983885
tp296
sbsS'BuiltinMethodLookup'
p297
(iLookups
BuiltinMethodLookup
p298
(dp299
g8
I150
sg9
(lp300
F0.00024384260177612305
aF0.0048442482948303223
aF0.0050438404083251957
aF0.00024340152740478518
aF0.0048446416854858402
aF0.0048439383506774904
aF0.00024324655532836914
aF0.0048438429832458494
aF0.0048447489738464352
aF0.0050439476966857907
aF0.00024334192276000979
aF0.0048437952995300289
aF0.0048444867134094238
aF0.00024434328079223631
aF0.0048439383506774904
aF0.00024329423904418946
aF0.0048438429832458494
aF0.0050445914268493651
aF0.0048438429832458494
aF0.00024329423904418946
asg11
I20
sg12
g13
sg14
(lp301
F1.2024797797203064
aF1.2977387309074402
aF1.3988508582115173
aF1.3005997538566589
aF1.2980818152427673
aF1.3032748103141785
aF1.4022297263145447
aF1.4922956824302673
aF1.3987469077110291
aF1.4026667475700378
asg16
F2
sg17
I10
sg18
I7000
sg19
(F1.4026667475700378
F1.4029099941253662
F0.00024324655532836914
tp302
sbsS'SimpleComplexArithmetic'
p303
(iArithmetic
SimpleComplexArithmetic
p304
(dp305
g8
I110
sg9
(lp306
F0.0048786401748657227
aF0.0048789501190185545
aF0.0050783395767211911
aF0.00027779340744018557
aF0.0048794388771057125
aF0.0048784375190734867
aF0.0048789381980895996
aF0.00027799606323242188
aF0.0048781991004943851
aF0.0048788309097290037
aF0.0050782918930053714
aF0.0048788428306579586
aF0.00027799606323242188
aF0.0048783421516418457
aF0.0048791885375976561
aF0.00027779340744018557
aF0.0096792459487915032
aF0.00027838945388793947
aF0.0048783421516418457
aF0.0048793435096740724
asg11
I20
sg12
g13
sg14
(lp307
F1.4976911187171935
aF1.4017111897468566
aF1.4963771939277648
aF1.4027821660041808
aF1.4951932072639464
aF1.3996312260627746
aF1.4935531258583068
aF1.4028560757637023
aF1.3986780285835265
aF1.4026763081550597
asg16
F2
sg17
I10
sg18
I8000
sg19
(F1.4026763081550597
F1.4029541015625
F0.00027779340744018557
tp308
sbsS'ConcatUnicode'
p309
(iUnicode
ConcatUnicode
p310
(dp311
g8
I50
sg9
(lp312
F0.0048822402954101559
aF0.0048827409744262697
aF0.0050804495811462404
aF0.0048826456069946287
aF0.00028078556060791017
aF0.0048819899559020994
aF0.0048808455467224121
aF0.00028108358383178712
aF0.0096824407577514645
aF0.00028089284896850588
aF0.0048826456069946287
aF0.0048819422721862789
aF0.0048831939697265622
aF0.00028203725814819337
aF0.0048822402954101559
aF0.0048829913139343262
aF0.005082345008850098
aF0.0048831939697265622
aF0.00028179883956909181
aF0.0048825025558471681
asg11
I20
sg12
g13
sg14
(lp313
F2.1973002672195436
aF2.1970880746841432
aF2.1965432882308962
aF2.1990962743759157
aF2.1976922273635866
aF2.3065260171890261
aF2.1965561628341677
aF2.1045773744583132
aF2.200923275947571
aF2.1056843519210817
asg16
F2
sg17
I10
sg18
I6000
sg19
(F2.1056843519210817
F2.1059651374816895
F0.00028078556060791017
tp314
sbsS'CompareInternedStrings'
p315
(iStrings
CompareInternedStrings
p316
(dp317
g8
I50
sg9
(lp318
F0.015071296691894531
aF0.01026993989944458
aF0.019670987129211427
aF0.015070950984954834
aF0.01026933193206787
aF0.0196724534034729
aF0.010283994674682616
aF0.019671285152435304
aF0.01026989221572876
aF0.015069949626922607
aF0.019671142101287842
aF0.010270452499389649
aF0.015080296993255615
aF0.014872848987579346
aF0.015070295333862305
aF0.019671690464019776
aF0.010269343852996826
aF0.014870250225067138
aF0.015070688724517823
aF0.015082335472106934
asg11
I20
sg12
g13
sg14
(lp319
F1.4923516035079956
aF1.4929607629776001
aF1.5838616609573364
aF1.4890986204147338
aF1.5831356763839721
aF1.5845115900039672
aF1.4923015356063842
aF1.5841427564620971
aF1.492624831199646
aF1.4902666330337524
asg16
F2
sg17
I10
sg18
I30000
sg19
(F1.4902666330337524
F1.5005359649658203
F0.01026933193206787
tp320
sbsS'CompareStrings'
p321
(iStrings
CompareStrings
p322
(dp323
g8
I50
sg9
(lp324
F0.0099174380302429199
aF0.0099154353141784664
aF0.010114490985870361
aF0.0099152445793151862
aF0.0099151968955993649
aF0.010115444660186768
aF0.0099151492118835453
aF0.010114347934722901
aF0.0099152922630310059
aF0.0099282979965209968
aF0.010116183757781982
aF0.0099157452583312992
aF0.010114443302154542
aF0.0099161863327026367
aF0.0053140401840209963
aF0.014715850353240967
aF0.0099148511886596683
aF0.0053139448165893553
aF0.014715802669525147
aF0.0053141951560974118
asg11
I20
sg12
g13
sg14
(lp325
F1.595829176902771
aF1.6881129026412964
aF1.5958770990371705
aF1.5015739679336548
aF1.6881319761276246
aF1.5962299585342408
aF1.596160101890564
aF1.595937180519104
aF1.5960242033004761
aF1.5959131002426148
asg16
F2
sg17
I10
sg18
I20000
sg19
(F1.5959131002426148
F1.6012270450592041
F0.0053139448165893553
tp326
sbsS'SmallTuples'
p327
(iTuples
SmallTuples
p328
(dp329
g8
I60
sg9
(lp330
F0.00031293630599975585
aF0.0097143411636352543
aF0.0049138426780700687
aF0.00031274557113647461
aF0.0049136400222778319
aF0.0049131870269775394
aF0.0049138426780700687
aF0.0049139022827148441
aF0.0051135420799255371
aF0.0049139499664306637
aF0.00031268596649169922
aF0.0049136877059936523
aF0.004913043975830078
aF0.004914498329162598
aF0.0051144480705261229
aF0.0049129843711853026
aF0.0049136400222778319
aF0.00031269788742065429
aF0.0049139499664306637
aF0.0049131393432617189
asg11
I20
sg12
g13
sg14
(lp331
F1.5053802728652954
aF1.6017962694168091
aF1.5982073545455933
aF1.597467303276062
aF1.5009454488754272
aF1.5024121999740601
aF1.5012482404708862
aF1.5030204057693481
aF1.5027223825454712
aF1.5029643774032593
asg16
F2
sg17
I10
sg18
I9000
sg19
(F1.5029643774032593
F1.503277063369751
F0.00031268596649169922
tp332
sbsS'NormalClassAttribute'
p333
(iLookups
NormalClassAttribute
p334
(dp335
g8
I120
sg9
(lp336
F0.0049578905105590824
aF0.0049562454223632812
aF0.0049561977386474608
aF0.0049557924270629879
aF0.0051550984382629393
aF0.0049566388130187992
aF0.0049557924270629879
aF0.0049558401107788084
aF0.0049558877944946289
aF0.00035463571548461915
aF0.0097564458847045898
aF0.0049558877944946289
aF0.0049561977386474608
aF0.0049558997154235838
aF0.00035464763641357422
aF0.0097564935684204095
aF0.0049558877944946289
aF0.0049557447433471683
aF0.004955589771270752
aF0.00035479068756103513
asg11
I20
sg12
g13
sg14
(lp337
F1.8974803805351257
aF1.8989383101463317
aF1.8953725218772888
aF1.898854386806488
aF1.8999112963676452
aF1.8988584399223327
aF1.8992072463035583
aF1.8954964995384216
aF1.8031603217124939
aF1.8994704604148864
asg16
F2
sg17
I10
sg18
I10000
sg19
(F1.8994704604148864
F1.8998250961303711
F0.00035463571548461915
tp338
sbsS'CreateInstances'
p339
(iInstances
CreateInstances
p340
(dp341
g8
I14
sg9
(lp342
F0.0048850893974304197
aF0.00028234720230102539
aF0.0096840500831604
aF0.00028313398361206054
aF0.0048835396766662596
aF0.0048826932907104492
aF0.0048832893371582031
aF0.00028258562088012695
aF0.0048827409744262697
aF0.0050834894180297853
aF0.0048829436302185057
aF0.0048837900161743161
aF0.00028229951858520507
aF0.0048830389976501467
aF0.0048834919929504391
aF0.0050832867622375485
aF0.0048842430114746094
aF0.00028238296508789065
aF0.0048840403556823734
aF0.0048828363418579098
asg11
I20
sg12
g13
sg14
(lp343
F2.2055318236351011
aF2.1983969092369078
aF2.1956016898155211
aF2.1971895575523375
aF2.1963677287101744
aF2.1985785841941832
aF2.1041996359825133
aF2.1938676714897154
aF2.197352874279022
aF2.2957677721977232
asg16
F2
sg17
I10
sg18
I8000
sg19
(F2.2957677721977232
F2.2960500717163086
F0.00028229951858520507
tp344
sbsS'DictWithStringKeys'
p345
(iDict
DictWithStringKeys
p346
(dp347
g8
I60
sg9
(lp348
F0.010143542289733886
aF0.0099434852600097656
aF0.014744246006011963
aF0.009943842887878418
aF0.0053429484367370607
aF0.014744043350219727
aF0.0099439978599548343
aF0.010142898559570313
aF0.0099437952041625984
aF0.0099440455436706539
aF0.010143637657165527
aF0.0099428892135620117
aF0.0099445939064025882
aF0.010143697261810303
aF0.0099448442459106438
aF0.010142791271209716
aF0.009943652153015136
aF0.014744091033935546
aF0.009943544864654541
aF0.0053430318832397459
asg11
I20
sg12
g13
sg14
(lp349
F1.2006909966468811
aF1.2014281868934631
aF1.293152105808258
aF1.1972780346870422
aF1.1974089264869689
aF1.1972890019416809
aF1.2934472680091857
aF1.29346204996109
aF1.1973641037940979
aF1.1974210858345031
asg16
F2
sg17
I10
sg18
I20000
sg19
(F1.1974210858345031
F1.2027640342712402
F0.0053429484367370607
tp350
sbsS'DictCreation'
p351
(iDict
DictCreation
p352
(dp353
g8
I50
sg9
(lp354
F0.0048773884773254395
aF0.0050764441490173343
aF0.0048771977424621584
aF0.00027585029602050781
aF0.0048767447471618651
aF0.0048775434494018558
aF0.00027599334716796873
aF0.0048774480819702148
aF0.0048763394355773922
aF0.0050763845443725589
aF0.0048772454261779789
aF0.00027580261230468749
aF0.004877042770385742
aF0.0048763871192932127
aF0.00027599334716796873
aF0.009677588939666748
aF0.00027583837509155275
aF0.0048774957656860353
aF0.0048764944076538086
aF0.00027585029602050781
asg11
I20
sg12
g13
sg14
(lp355
F1.201266098022461
aF1.2016742706298829
aF1.1970623016357422
aF1.1973112106323243
aF1.1967492580413819
aF1.1060910701751709
aF1.2009871482849122
aF1.2017384052276612
aF1.2011723995208741
aF1.2011762142181397
asg16
F2
sg17
I10
sg18
I8000
sg19
(F1.2011762142181397
F1.2014520168304443
F0.00027580261230468749
tp356
sbsS'StringSlicing'
p357
(iStrings
StringSlicing
p358
(dp359
g8
I35
sg9
(lp360
F0.0051958918571472171
aF0.0097955465316772461
aF0.0099955916404724128
aF0.0051955819129943844
aF0.0097955942153930657
aF0.0099956393241882324
aF0.0051954388618469238
aF0.0097955465316772461
aF0.0099957942962646488
aF0.0051949381828308109
aF0.0051957845687866213
aF0.0097951889038085938
aF0.009997045993804932
aF0.0051949381828308109
aF0.0097956895828247067
aF0.0099962949752807617
aF0.0051954030990600582
aF0.0097952842712402347
aF0.0099958896636962898
aF0.0051953434944152829
asg11
I20
sg12
g13
sg14
(lp361
F1.1936940789222716
aF1.2901842236518859
aF1.1922721505165099
aF1.1973471283912658
aF1.1938562035560607
aF1.1931340336799621
aF1.1962792515754699
aF1.193432056903839
aF1.1982261776924132
aF1.1948308587074279
asg16
F2
sg17
I10
sg18
I16000
sg19
(F1.1948308587074279
F1.2000257968902588
F0.0051949381828308109
tp362
sbssS'name'
p363
S'results/with_issdm-6_1.pybench'
p364
sg11
I20
sg17
I10
sS'machine_details'
p365
(dp366
S'platform'
p367
S'Linux-3.13.0-88-generic-x86_64-with'
p368
sS'executable'
p369
S'/usr/local/bin/python'
p370
sS'builddate'
p371
S'Jul 19 2016 20:13:40'
p372
sS'unicode'
p373
S'UCS4'
p374
sS'implementation'
p375
S'CPython'
p376
sS'compiler'
p377
S'GCC 5.3.0'
p378
sS'bits'
p379
S'64bit'
p380
sS'processor'
p381
S''
sS'buildno'
p382
S'default'
p383
sS'python'
p384
S'2.7.12'
p385
ssg12
g13
sg16
F2
sS'roundtimes'
p386
(lp387
F95.69741775989533
aF95.405096316337591
aF95.897069478034979
aF95.50105979442597
aF95.700823807716375
aF95.705021882057196
aF95.79909708499909
aF95.999036574363714
aF95.607854866981512
aF95.598788523674017
asg18
I10
sS'verbose'
p388
I0
sb.