(i__main__
Benchmark
p1
(dp2
S'tests'
p3
(dp4
S'SpecialInstanceAttribute'
p5
(iLookups
SpecialInstanceAttribute
p6
(dp7
S'operations'
p8
I120
sS'overhead_times'
p9
(lp10
F0.00014760494232177735
aF0.00014339685440063478
aF0.00014609098434448242
aF0.0039511561393737789
aF0.00014444589614868165
aF0.00014644861221313477
aF0.00014400482177734375
aF0.0001466989517211914
aF0.00014569759368896485
aF0.00014510154724121094
aF0.00014950037002563475
aF0.0001502513885498047
aF0.0037522435188293455
aF0.00014674663543701172
aF0.0001479029655456543
aF0.00014644861221313477
aF0.00014613866806030275
aF0.00015029907226562499
aF0.00014089345932006837
aF0.0001462101936340332
asS'calibration_runs'
p11
I20
sS'timer'
p12
S'time.time'
p13
sS'times'
p14
(lp15
F0.31314898729324342
aF0.39331198930740358
aF0.39090610742568971
aF0.39280320405960084
aF0.39045311212539674
aF0.31470919847488404
aF0.39364911317825318
aF0.39332700967788697
aF0.38881016969680787
aF0.38875104188919068
asS'version'
p16
F2
sS'warp'
p17
I10
sS'rounds'
p18
I10000
sS'last_timing'
p19
(F0.38875104188919068
F0.38889193534851074
F0.00014089345932006837
tp20
sbsS'PythonFunctionCalls'
p21
(iCalls
PythonFunctionCalls
p22
(dp23
g8
I55
sg9
(lp24
F8.4590911865234378e-05
aF8.3208084106445312e-05
aF8.2743167877197268e-05
aF8.3041191101074221e-05
aF8.2755088806152349e-05
aF8.3994865417480471e-05
aF8.3291530609130865e-05
aF8.2755088806152349e-05
aF8.3756446838378909e-05
aF8.5544586181640628e-05
aF0.0038884520530700684
aF8.2898139953613279e-05
aF8.7654590606689448e-05
aF8.6402893066406245e-05
aF8.5198879241943365e-05
aF8.4447860717773435e-05
aF8.4006786346435552e-05
aF8.3553791046142575e-05
aF8.3303451538085932e-05
aF8.3351135253906255e-05
asg11
I20
sg12
g13
sg14
(lp25
F0.18805335760116576
aF0.11626337766647339
aF0.19199227094650267
aF0.11201428174972534
aF0.1155474066734314
aF0.18795632123947142
aF0.11565326452255249
aF0.11619232892990113
aF0.18764637708663939
aF0.11160038709640503
asg16
F2
sg17
I10
sg18
I6000
sg19
(F0.11160038709640503
F0.11168313026428223
F8.2743167877197268e-05
tp26
sbsS'CompareFloatsIntegers'
p27
(iNumbers
CompareFloatsIntegers
p28
(dp29
g8
I150
sg9
(lp30
F8.2945823669433588e-05
aF8.2302093505859372e-05
aF0.0002140522003173828
aF8.4090232849121091e-05
aF7.8642368316650396e-05
aF8.5401535034179685e-05
aF0.0036859512329101562
aF8.2302093505859372e-05
aF8.2850456237792969e-05
aF8.2194805145263672e-05
aF8.2600116729736325e-05
aF8.2397460937500005e-05
aF8.2349777221679682e-05
aF8.2707405090332026e-05
aF8.2302093505859372e-05
aF8.2695484161376959e-05
aF8.2492828369140625e-05
aF8.2743167877197268e-05
aF8.2552433013916016e-05
aF8.2242488861083982e-05
asg11
I20
sg12
g13
sg14
(lp31
F0.11162332296371461
aF0.11190036535263062
aF0.11182740926742554
aF0.18406132459640503
aF0.1076243281364441
aF0.11196116209030152
aF0.18403724431991578
aF0.11199549436569214
aF0.18399623632431031
aF0.10782531499862671
asg16
F2
sg17
I10
sg18
I6000
sg19
(F0.10782531499862671
F0.10790395736694336
F7.8642368316650396e-05
tp32
sbsS'PythonMethodCalls'
p33
(iCalls
PythonMethodCalls
p34
(dp35
g8
I75
sg9
(lp36
F4.6551227569580078e-05
aF4.5156478881835939e-05
aF4.5144557952880858e-05
aF4.5299530029296875e-05
aF4.6658515930175779e-05
aF4.5096874237060548e-05
aF4.6896934509277341e-05
aF4.6551227569580078e-05
aF4.4703483581542969e-05
aF4.6455860137939452e-05
aF4.5502185821533202e-05
aF4.5943260192871091e-05
aF4.5049190521240232e-05
aF0.0036506056785583496
aF4.6408176422119142e-05
aF4.7743320465087891e-05
aF4.6348571777343751e-05
aF4.5800209045410155e-05
aF4.5096874237060548e-05
aF4.5001506805419922e-05
asg11
I20
sg12
g13
sg14
(lp37
F0.20125043392181396
aF0.27882230281829834
aF0.20212733745574951
aF0.27904021739959717
aF0.20196735858917236
aF0.20250236988067627
aF0.27388536930084229
aF0.20235621929168701
aF0.20162427425384521
aF0.2021254301071167
asg16
F2
sg17
I10
sg18
I3000
sg19
(F0.2021254301071167
F0.20217013359069824
F4.4703483581542969e-05
tp38
sbsS'NestedListComprehensions'
p39
(iLists
NestedListComprehensions
p40
(dp41
g8
I6
sg9
(lp42
F3.0648708343505862e-05
aF3.0052661895751952e-05
aF2.9206275939941406e-05
aF3.0946731567382815e-05
aF3.0303001403808592e-05
aF3.2055377960205075e-05
aF2.9945373535156249e-05
aF2.8848648071289062e-05
aF2.9301643371582033e-05
aF2.9397010803222656e-05
aF3.0410289764404296e-05
aF2.9397010803222656e-05
aF2.9754638671874999e-05
aF2.9301643371582033e-05
aF2.9397010803222656e-05
aF2.9349327087402342e-05
aF2.9408931732177733e-05
aF2.9301643371582033e-05
aF2.9253959655761719e-05
aF2.9706954956054686e-05
asg11
I20
sg12
g13
sg14
(lp43
F0.1979060173034668
aF0.19712615013122559
aF0.19692420959472656
aF0.19722819328308105
aF0.19668412208557129
aF0.19750595092773438
aF0.20095634460449219
aF0.19771313667297363
aF0.11994814872741699
aF0.19648313522338867
asg16
F2
sg17
I10
sg18
I2000
sg19
(F0.19648313522338867
F0.19651198387145996
F2.8848648071289062e-05
tp44
sbsS'SecondSubmoduleImport'
p45
(iImports
SecondSubmoduleImport
p46
(dp47
g8
I25
sg9
(lp48
F5.5599212646484372e-05
aF5.5909156799316406e-05
aF5.5289268493652345e-05
aF5.6540966033935548e-05
aF5.6898593902587892e-05
aF5.6099891662597659e-05
aF5.5599212646484372e-05
aF5.6803226470947266e-05
aF5.6755542755126956e-05
aF5.5742263793945315e-05
aF5.4550170898437503e-05
aF5.5897235870361325e-05
aF5.5348873138427736e-05
aF5.8007240295410159e-05
aF5.5789947509765625e-05
aF5.7053565979003909e-05
aF5.6350231170654296e-05
aF5.6552886962890622e-05
aF0.0038600564002990723
aF5.4848194122314456e-05
asg11
I20
sg12
g13
sg14
(lp49
F0.30030350685119628
aF0.29970364570617675
aF0.29936938285827636
aF0.29934840202331542
aF0.29640345573425292
aF0.30000953674316405
aF0.30145745277404784
aF0.29956631660461425
aF0.29908065795898436
aF0.30203442573547362
asg16
F2
sg17
I10
sg18
I4000
sg19
(F0.30203442573547362
F0.30208897590637207
F5.4550170898437503e-05
tp50
sbsS'DictWithIntegerKeys'
p51
(iDict
DictWithIntegerKeys
p52
(dp53
g8
I60
sg9
(lp54
F0.00027509927749633787
aF0.00027585029602050781
aF0.00027455091476440429
aF0.0040780544281005856
aF0.00027444362640380857
aF0.00027459859848022461
aF0.00027459859848022461
aF0.00027424097061157227
aF0.0038783550262451172
aF0.00027489662170410156
aF0.00027461051940917968
aF0.00027459859848022461
aF0.00027434825897216798
aF0.0040784478187561035
aF0.00027545690536499021
aF0.00027440786361694337
aF0.00027469396591186526
aF0.00027440786361694337
aF0.0038789987564086916
aF0.00027450323104858396
asg11
I20
sg12
g13
sg14
(lp55
F0.11379760503768921
aF0.18617981672286987
aF0.18559354543685913
aF0.18598884344100952
aF0.1902727484703064
aF0.10948771238327026
aF0.19031375646591187
aF0.18537062406539917
aF0.10982269048690796
aF0.18645256757736206
asg16
F2
sg17
I10
sg18
I20000
sg19
(F0.18645256757736206
F0.18672680854797363
F0.00027424097061157227
tp56
sbsS'UnicodeSlicing'
p57
(iUnicode
UnicodeSlicing
p58
(dp59
g8
I35
sg9
(lp60
F0.00021324157714843749
aF0.00021169185638427734
aF0.00021554231643676757
aF0.00021655559539794921
aF0.00021135807037353516
aF0.0038188934326171876
aF0.00021514892578124999
aF0.00021260976791381836
aF0.00021295547485351564
aF0.0002131938934326172
aF0.0040164589881896973
aF0.00021409988403320312
aF0.00021475553512573242
aF0.0002164006233215332
aF0.00021514892578124999
aF0.0002189040184020996
aF0.00021690130233764648
aF0.0038208007812500001
aF0.00021475553512573242
aF0.0002151012420654297
asg11
I20
sg12
g13
sg14
(lp61
F0.19707858562469482
aF0.19816768169403076
aF0.19690382480621338
aF0.12118160724639893
aF0.19730556011199951
aF0.19751060009002686
aF0.20123660564422607
aF0.19783866405487061
aF0.12494456768035889
aF0.201163649559021
asg16
F2
sg17
I10
sg18
I14000
sg19
(F0.201163649559021
F0.20137500762939453
F0.00021135807037353516
tp62
sbsS'NestedForLoops'
p63
(iConstructs
NestedForLoops
p64
(dp65
g8
I50000
sg9
(lp66
F1.1861324310302734e-05
aF9.4413757324218753e-06
aF9.1433525085449222e-06
aF1.0299682617187501e-05
aF9.7513198852539059e-06
aF9.2983245849609375e-06
aF9.6917152404785153e-06
aF9.6917152404785153e-06
aF9.5486640930175774e-06
aF9.095668792724609e-06
aF9.095668792724609e-06
aF9.1075897216796882e-06
aF9.095668792724609e-06
aF1.010894775390625e-05
aF9.095668792724609e-06
aF9.6082687377929681e-06
aF9.4413757324218753e-06
aF9.5963478088378906e-06
aF9.095668792724609e-06
aF9.1075897216796882e-06
asg11
I20
sg12
g13
sg14
(lp67
F0.1141318917274475
aF0.18884202241897582
aF0.18600198030471801
aF0.18967386484146118
aF0.18550487756729125
aF0.10949584245681762
aF0.10956093072891235
aF0.19059869050979614
aF0.18999882936477661
aF0.11436387300491332
asg16
F2
sg17
I10
sg18
I30
sg19
(F0.11436387300491332
F0.11437296867370605
F9.095668792724609e-06
tp68
sbsS'UnicodePredicates'
p69
(iUnicode
UnicodePredicates
p70
(dp71
g8
I45
sg9
(lp72
F0.0047587513923645023
aF0.00087709426879882817
aF0.0044776916503906248
aF0.0046772956848144531
aF0.00086939334869384766
aF0.0044667482376098636
aF0.0046710014343261715
aF0.00086795091629028316
aF0.0044713020324707031
aF0.004669094085693359
aF0.00087004899978637695
aF0.0044718503952026365
aF0.0046712994575500485
aF0.0046794533729553221
aF0.0008724451065063477
aF0.0044696927070617676
aF0.0046719908714294434
aF0.00087209939956665037
aF0.0044730901718139648
aF0.0046677947044372562
asg11
I20
sg12
g13
sg14
(lp73
F0.19646705389022828
aF0.20029009580612184
aF0.19565523862838746
aF0.19623697996139527
aF0.12014902830123901
aF0.19590295553207399
aF0.19576610326766969
aF0.19584716558456422
aF0.19570816755294801
aF0.19582618474960328
asg16
F2
sg17
I10
sg18
I12000
sg19
(F0.19582618474960328
F0.19669413566589355
F0.00086795091629028316
tp74
sbsS'ForLoops'
p75
(iConstructs
ForLoops
p76
(dp77
g8
I25
sg9
(lp78
F2.4402141571044921e-05
aF2.3400783538818361e-05
aF2.1696090698242188e-05
aF2.1791458129882814e-05
aF2.2649765014648438e-05
aF2.2494792938232421e-05
aF2.2697448730468751e-05
aF2.2149085998535158e-05
aF2.1600723266601561e-05
aF2.2900104522705077e-05
aF2.2149085998535158e-05
aF2.2256374359130858e-05
aF2.1743774414062501e-05
aF2.3245811462402344e-05
aF2.2149085998535158e-05
aF2.2852420806884764e-05
aF2.0849704742431641e-05
aF2.0408630371093749e-05
aF2.2196769714355467e-05
aF2.2399425506591798e-05
asg11
I20
sg12
g13
sg14
(lp79
F0.10180745124816895
aF0.10655865669250489
aF0.10600242614746094
aF0.10212955474853516
aF0.10623559951782227
aF0.1021655559539795
aF0.10609755516052247
aF0.10587058067321778
aF0.17824254035949708
aF0.10199460983276368
asg16
F2
sg17
I10
sg18
I1000
sg19
(F0.10199460983276368
F0.10201501846313477
F2.0408630371093749e-05
tp80
sbsS'ConcatStrings'
p81
(iStrings
ConcatStrings
p82
(dp83
g8
I50
sg9
(lp84
F0.00018174648284912108
aF0.00017875432968139648
aF0.0039778947830200195
aF0.00017925500869750977
aF0.00017614364624023436
aF0.00017420053482055664
aF0.00017554759979248046
aF0.00017139911651611328
aF0.00017555952072143555
aF0.00017429590225219725
aF0.0037858009338378905
aF0.0001739978790283203
aF0.00017974376678466796
aF0.00017729997634887695
aF0.00017518997192382811
aF0.00017470121383666992
aF0.00017639398574829102
aF0.0039785981178283693
aF0.00017794370651245118
aF0.00017579793930053711
asg11
I20
sg12
g13
sg14
(lp85
F0.32153561115264895
aF0.30389358997344973
aF0.30951359272003176
aF0.31368257999420168
aF0.31228258609771731
aF0.30819776058197024
aF0.38006451129913332
aF0.30656960010528567
aF0.30835654735565188
aF0.30797054767608645
asg16
F2
sg17
I10
sg18
I10000
sg19
(F0.30797054767608645
F0.30814194679260254
F0.00017139911651611328
tp86
sbsS'SecondPackageImport'
p87
(iImports
SecondPackageImport
p88
(dp89
g8
I25
sg9
(lp90
F5.8698654174804685e-05
aF5.5146217346191409e-05
aF5.8758258819580075e-05
aF5.7601928710937499e-05
aF5.8448314666748048e-05
aF5.7852268218994142e-05
aF5.5253505706787109e-05
aF5.5706501007080079e-05
aF5.5992603302001952e-05
aF5.6493282318115232e-05
aF5.5098533630371092e-05
aF5.6910514831542966e-05
aF5.5599212646484372e-05
aF5.6803226470947266e-05
aF5.5551528930664062e-05
aF5.7101249694824219e-05
aF5.5146217346191409e-05
aF0.0036583542823791504
aF5.4943561553955075e-05
aF5.4848194122314456e-05
asg11
I20
sg12
g13
sg14
(lp91
F0.28402518033981322
aF0.21053718328475951
aF0.20767234563827514
aF0.20787810087203978
aF0.20832513570785521
aF0.28110002279281615
aF0.2818851351737976
aF0.20801900625228881
aF0.20773814916610717
aF0.21014331579208373
asg16
F2
sg17
I10
sg18
I4000
sg19
(F0.21014331579208373
F0.21019816398620605
F5.4848194122314456e-05
tp92
sbsS'CompareIntegers'
p93
(iNumbers
CompareIntegers
p94
(dp95
g8
I150
sg9
(lp96
F0.0039683461189270021
aF0.00016564130783081055
aF0.00016754865646362305
aF0.00017055273056030274
aF0.00016775131225585938
aF0.00016770362854003906
aF0.00016540288925170898
aF0.00016695261001586914
aF0.003773808479309082
aF0.00016720294952392577
aF0.00016604661941528321
aF0.00016880035400390625
aF0.00016884803771972657
aF0.00016620159149169922
aF0.00016460418701171874
aF0.0039674520492553713
aF0.00016800165176391601
aF0.00016629695892333984
aF0.0001655101776123047
aF0.00017119646072387694
asg11
I20
sg12
g13
sg14
(lp97
F0.10180535316467285
aF0.097836399078369135
aF0.097895288467407221
aF0.10198035240173339
aF0.10184326171874999
aF0.10206642150878906
aF0.10202827453613281
aF0.098046445846557612
aF0.097757244110107416
aF0.10192623138427734
asg16
F2
sg17
I10
sg18
I12000
sg19
(F0.10192623138427734
F0.10209083557128906
F0.00016460418701171874
tp98
sbsS'CreateStringsWithConcat'
p99
(iStrings
CreateStringsWithConcat
p100
(dp101
g8
I50
sg9
(lp102
F0.0038818001747131349
aF0.00027610063552856444
aF0.00027589797973632814
aF0.00027450323104858396
aF0.0040797472000122072
aF0.0002776503562927246
aF0.0002792954444885254
aF0.00027459859848022461
aF0.00027545690536499021
aF0.0038772583007812499
aF0.0002763986587524414
aF0.00027475357055664065
aF0.00027660131454467776
aF0.00027436017990112305
aF0.0040771484374999998
aF0.00028035640716552737
aF0.00027065277099609376
aF0.00028135776519775388
aF0.00027835369110107422
aF0.0038823962211608888
asg11
I20
sg12
g13
sg14
(lp103
F0.1983804225921631
aF0.19826025962829591
aF0.1987163543701172
aF0.19839043617248536
aF0.19856233596801759
aF0.19846434593200685
aF0.19849748611450196
aF0.19834537506103517
aF0.198563289642334
aF0.20255918502807618
asg16
F2
sg17
I10
sg18
I20000
sg19
(F0.20255918502807618
F0.20282983779907227
F0.00027065277099609376
tp104
sbsS'SmallLists'
p105
(iLists
SmallLists
p106
(dp107
g8
I85
sg9
(lp108
F0.00010985136032104492
aF0.00011039972305297852
aF0.00011014938354492188
aF0.00010995864868164062
aF0.00011024475097656249
aF0.00010994672775268554
aF0.0037144541740417479
aF0.00011014938354492188
aF0.00011304616928100585
aF0.00011104345321655273
aF0.00011079311370849609
aF0.00011194944381713867
aF0.00011105537414550782
aF0.00011069774627685547
aF0.00010985136032104492
aF0.00011029243469238282
aF0.00011194944381713867
aF0.0039140462875366213
aF0.00011119842529296874
aF0.00011010169982910157
asg11
I20
sg12
g13
sg14
(lp109
F0.11678200960159302
aF0.19154816865921021
aF0.19148308038711548
aF0.19087320566177368
aF0.19400507211685181
aF0.11808735132217407
aF0.19037610292434692
aF0.19015413522720337
aF0.11352115869522095
aF0.18977099657058716
asg16
F2
sg17
I10
sg18
I8000
sg19
(F0.18977099657058716
F0.1898808479309082
F0.00010985136032104492
tp110
sbsS'CompareUnicode'
p111
(iUnicode
CompareUnicode
p112
(dp113
g8
I50
sg9
(lp114
F0.0038210511207580566
aF0.00021665096282958985
aF0.00021495819091796876
aF0.00021480321884155275
aF0.00021739006042480468
aF0.0040171504020690921
aF0.00020940303802490233
aF0.00021435022354125975
aF0.00021156072616577149
aF0.0002121448516845703
aF0.00021353960037231445
aF0.00021409988403320312
aF0.0038240432739257814
aF0.00021179914474487305
aF0.00021160840988159179
aF0.00021250247955322265
aF0.00020954608917236328
aF0.0040187954902648924
aF0.00021619796752929686
aF0.00021255016326904297
asg11
I20
sg12
g13
sg14
(lp115
F0.18801062107086181
aF0.11437766551971436
aF0.11477367877960205
aF0.18673079013824462
aF0.18684761524200438
aF0.187170672416687
aF0.18847267627716063
aF0.11557977199554444
aF0.18685762882232665
aF0.11017839908599854
asg16
F2
sg17
I10
sg18
I15000
sg19
(F0.11017839908599854
F0.11038780212402344
F0.00020940303802490233
tp116
sbsS'SimpleListManipulation'
p117
(iLists
SimpleListManipulation
p118
(dp119
g8
I90
sg9
(lp120
F0.00017974376678466796
aF0.00017850399017333985
aF0.00017900466918945311
aF0.00017899274826049805
aF0.0037822961807250977
aF0.00017889738082885743
aF0.00017895698547363282
aF0.00017899274826049805
aF0.00017930269241333007
aF0.00017889738082885743
aF0.0039812564849853512
aF0.00017910003662109376
aF0.000179290771484375
aF0.00017924308776855468
aF0.00017964839935302734
aF0.00017955303192138672
aF0.00017910003662109376
aF0.00017974376678466796
aF0.0037826895713806152
aF0.00017925500869750977
asg11
I20
sg12
g13
sg14
(lp121
F0.10781557559967041
aF0.10322244167327881
aF0.1034045934677124
aF0.10346443653106689
aF0.10755760669708252
aF0.10706050395965576
aF0.10726649761199951
aF0.10344154834747314
aF0.10707957744598388
aF0.10327656269073486
asg16
F2
sg17
I10
sg18
I13000
sg19
(F0.10327656269073486
F0.1034550666809082
F0.00017850399017333985
tp122
sbsS'DictWithFloatKeys'
p123
(iDict
DictWithFloatKeys
p124
(dp125
g8
I60
sg9
(lp126
F0.00022535324096679689
aF0.0040270566940307619
aF0.00022184848785400391
aF0.00022145509719848633
aF0.00022090673446655272
aF0.00022259950637817382
aF0.00022214651107788086
aF0.0038345456123352051
aF0.00023045539855957032
aF0.00022449493408203126
aF0.00022095441818237305
aF0.00022115707397460938
aF0.00022164583206176757
aF0.0040245532989501955
aF0.00022139549255371094
aF0.00022134780883789062
aF0.00022099018096923828
aF0.00022115707397460938
aF0.00022109746932983399
aF0.0038257479667663575
asg11
I20
sg12
g13
sg14
(lp127
F0.197283136844635
aF0.19711409807205199
aF0.1980310559272766
aF0.1982899785041809
aF0.19723020792007445
aF0.19627319574356078
aF0.12173305749893189
aF0.19712721109390258
aF0.19741116762161254
aF0.19853626489639281
asg16
F2
sg17
I10
sg18
I15000
sg19
(F0.19853626489639281
F0.19875717163085938
F0.00022090673446655272
tp128
sbsS'CreateNewInstances'
p129
(iNewInstances
CreateNewInstances
p130
(dp131
g8
I14
sg9
(lp132
F0.0039337992668151854
aF0.00011774301528930665
aF0.0001162409782409668
aF0.00011575222015380859
aF0.00012015104293823242
aF0.00011639595031738281
aF0.00011835098266601562
aF0.00012040138244628906
aF0.00012224912643432617
aF0.00011985301971435547
aF0.003931295871734619
aF0.00012664794921875001
aF0.0001241445541381836
aF0.0001260519027709961
aF0.00012575387954711915
aF0.00012400150299072266
aF0.0001267075538635254
aF0.00012705326080322265
aF0.00013425350189208985
aF0.00013245344161987304
asg11
I20
sg12
g13
sg14
(lp133
F0.19604122638702393
aF0.11886918544769287
aF0.1186751127243042
aF0.1915363073348999
aF0.11911141872406006
aF0.1915363073348999
aF0.19116008281707764
aF0.11843025684356689
aF0.19101035594940186
aF0.19093930721282959
asg16
F2
sg17
I10
sg18
I6000
sg19
(F0.19093930721282959
F0.1910550594329834
F0.00011575222015380859
tp134
sbsS'TryExcept'
p135
(iExceptions
TryExcept
p136
(dp137
g8
I150
sg9
(lp138
F0.00021020174026489257
aF0.00020924806594848632
aF0.0002108454704284668
aF0.00021018981933593751
aF0.0040147423744201658
aF0.00020985603332519532
aF0.00021014213562011718
aF0.00020735263824462892
aF0.00020900964736938476
aF0.00021245479583740235
aF0.0038125991821289064
aF0.00021200180053710939
aF0.00021320581436157227
aF0.00020949840545654298
aF0.00020284652709960936
aF0.0002133965492248535
aF0.0040127515792846681
aF0.00021185874938964844
aF0.0002095937728881836
aF0.000209808349609375
asg11
I20
sg12
g13
sg14
(lp139
F0.10484414100646973
aF0.10524826049804688
aF0.10081009864807129
aF0.10083894729614258
aF0.10108714103698731
aF0.10515813827514649
aF0.10504012107849121
aF0.17719702720642089
aF0.10505418777465821
aF0.10087018013000489
asg16
F2
sg17
I10
sg18
I15000
sg19
(F0.10087018013000489
F0.10107302665710449
F0.00020284652709960936
tp140
sbsS'ComplexPythonFunctionCalls'
p141
(iCalls
ComplexPythonFunctionCalls
p142
(dp143
g8
I20
sg9
(lp144
F0.00013930797576904296
aF0.00014004707336425781
aF0.00013855695724487304
aF0.00013840198516845703
aF0.0001374959945678711
aF0.0039433956146240233
aF0.00014696121215820312
aF0.00014009475708007813
aF0.00013805627822875975
aF0.00013660192489624025
aF0.00013799667358398436
aF0.00013954639434814452
aF0.00013955831527709961
aF0.0001387953758239746
aF0.00013999938964843751
aF0.003740990161895752
aF0.00013844966888427735
aF0.00013990402221679686
aF0.0001423954963684082
aF0.00013824701309204102
asg11
I20
sg12
g13
sg14
(lp145
F0.19302035570144654
aF0.19312740564346315
aF0.1931665062904358
aF0.19289232492446901
aF0.19380236864089967
aF0.19255043268203736
aF0.12096549272537231
aF0.19291545152664186
aF0.19293643236160279
aF0.19303036928176881
asg16
F2
sg17
I10
sg18
I10000
sg19
(F0.19303036928176881
F0.19316697120666504
F0.00013660192489624025
tp146
sbsS'TryRaiseExcept'
p147
(iExceptions
TryRaiseExcept
p148
(dp149
g8
I8
sg9
(lp150
F0.00011185407638549804
aF0.0001134037971496582
aF0.00010980367660522461
aF0.00011019706726074218
aF0.00010980367660522461
aF0.00011130571365356446
aF0.0039149999618530275
aF0.0001134037971496582
aF0.00011240243911743164
aF0.0001139998435974121
aF0.00011190176010131836
aF0.00010985136032104492
aF0.00011445283889770508
aF0.0001157999038696289
aF0.00011245012283325195
aF0.00011115074157714843
aF0.00010755062103271485
aF0.00011119842529296874
aF0.00011655092239379883
aF0.0037149548530578612
asg11
I20
sg12
g13
sg14
(lp151
F0.19265553951263428
aF0.19278857707977295
aF0.12066552639007569
aF0.12075445652008057
aF0.11689660549163819
aF0.19278261661529542
aF0.19284245967864991
aF0.19342658519744874
aF0.19277141094207764
aF0.1925663709640503
asg16
F2
sg17
I10
sg18
I8000
sg19
(F0.1925663709640503
F0.19267392158508301
F0.00010755062103271485
tp152
sbsS'IfThenElse'
p153
(iConstructs
IfThenElse
p154
(dp155
g8
I90
sg9
(lp156
F0.00021104812622070314
aF0.00020890235900878907
aF0.0040177106857299805
aF0.00020838975906372069
aF0.00020999908447265624
aF0.00020810365676879883
aF0.00020970106124877929
aF0.00020714998245239258
aF0.0002102494239807129
aF0.0038117051124572756
aF0.00020694732666015625
aF0.00020614862442016601
aF0.00020610094070434571
aF0.00020905733108520508
aF0.00020680427551269531
aF0.0040150523185729977
aF0.00021009445190429689
aF0.0002115488052368164
aF0.00021109580993652343
aF0.00020955801010131837
asg11
I20
sg12
g13
sg14
(lp157
F0.099760901927947995
aF0.095962893962860105
aF0.095986020565032956
aF0.10004390478134155
aF0.096312892436981198
aF0.10005987882614135
aF0.096196782588958737
aF0.095840823650360105
aF0.095860850811004636
aF0.099706780910491941
asg16
F2
sg17
I10
sg18
I15000
sg19
(F0.099706780910491941
F0.099912881851196289
F0.00020610094070434571
tp158
sbsS'NormalInstanceAttribute'
p159
(iLookups
NormalInstanceAttribute
p160
(dp161
g8
I120
sg9
(lp162
F0.00014594793319702148
aF0.00014139413833618163
aF0.00013555288314819335
aF0.0001381516456604004
aF0.00013920068740844727
aF0.00014059543609619142
aF0.0001407027244567871
aF0.00014444589614868165
aF0.0039425492286682129
aF0.00013885498046874999
aF0.00013855695724487304
aF0.00013824701309204102
aF0.00013860464096069336
aF0.00013949871063232422
aF0.00013924837112426757
aF0.00013943910598754883
aF0.00014454126358032227
aF0.00013924837112426757
aF0.0037477016448974609
aF0.00014175176620483397
asg11
I20
sg12
g13
sg14
(lp163
F0.11372052431106568
aF0.18573652505874633
aF0.1853054642677307
aF0.18781744241714476
aF0.18532263040542601
aF0.1096805214881897
aF0.10957633256912232
aF0.18560539484024047
aF0.11358557939529419
aF0.18535457849502562
asg16
F2
sg17
I10
sg18
I10000
sg19
(F0.18535457849502562
F0.18549013137817383
F0.00013555288314819335
tp164
sbsS'BuiltinFunctionCalls'
p165
(iCalls
BuiltinFunctionCalls
p166
(dp167
g8
I85
sg9
(lp168
F9.070634841918945e-05
aF8.9204311370849604e-05
aF8.1944465637207029e-05
aF8.4209442138671872e-05
aF8.3398818969726565e-05
aF8.2802772521972659e-05
aF8.5544586181640628e-05
aF8.4102153778076172e-05
aF8.2409381866455073e-05
aF8.6843967437744141e-05
aF8.1741809844970709e-05
aF8.5103511810302732e-05
aF8.3398818969726565e-05
aF8.7606906890869138e-05
aF8.8143348693847654e-05
aF0.003487706184387207
aF8.2850456237792969e-05
aF8.4507465362548825e-05
aF8.3243846893310541e-05
aF8.2504749298095706e-05
asg11
I20
sg12
g13
sg14
(lp169
F0.19822911024093628
aF0.20208314657211304
aF0.20251110792160035
aF0.19811323881149293
aF0.19818428754806519
aF0.1985371470451355
aF0.19858936071395875
aF0.20233134031295777
aF0.19836024045944214
aF0.19821122884750367
asg16
F2
sg17
I10
sg18
I6000
sg19
(F0.19821122884750367
F0.19829297065734863
F8.1741809844970709e-05
tp170
sbsS'UnicodeMappings'
p171
(iUnicode
UnicodeMappings
p172
(dp173
g8
I36
sg9
(lp174
F0.0002717018127441406
aF0.00026700496673583987
aF0.0040719032287597655
aF0.00026330947875976565
aF0.00026769638061523436
aF0.00026289224624633791
aF0.00026435852050781249
aF0.0038743495941162111
aF0.00026479959487915041
aF0.00026140213012695315
aF0.00026340484619140624
aF0.00026530027389526367
aF0.0040711522102355961
aF0.00026154518127441406
aF0.00026063919067382814
aF0.0002623915672302246
aF0.00026069879531860353
aF0.0038686990737915039
aF0.000264894962310791
aF0.00026440620422363281
asg11
I20
sg12
g13
sg14
(lp175
F0.28837532997131349
aF0.28444738388061525
aF0.2877673625946045
aF0.28837532997131349
aF0.28821249008178712
aF0.21243042945861818
aF0.28387041091918946
aF0.2124335289001465
aF0.28794546127319337
aF0.21192021369934083
asg16
F2
sg17
I10
sg18
I1000
sg19
(F0.21192021369934083
F0.21218085289001465
F0.00026063919067382814
tp176
sbsS'CompareFloats'
p177
(iNumbers
CompareFloats
p178
(dp179
g8
I150
sg9
(lp180
F0.0039160966873168944
aF0.00010859966278076172
aF0.00011279582977294922
aF0.00010974407196044922
aF0.00011025667190551758
aF0.00011010169982910157
aF0.0001097559928894043
aF0.00011035203933715821
aF0.00010960102081298828
aF0.00011005401611328126
aF0.00011135339736938477
aF0.00011489391326904296
aF0.00011345148086547852
aF0.0037117958068847655
aF0.00010814666748046876
aF0.00011099576950073242
aF0.00011184215545654297
aF0.00011304616928100585
aF0.00011160373687744141
aF0.00011545419692993164
asg11
I20
sg12
g13
sg14
(lp181
F0.18306193351745606
aF0.10733470916748047
aF0.10725078582763672
aF0.11091170310974122
aF0.18744883537292481
aF0.18323287963867188
aF0.11123285293579102
aF0.10714683532714844
aF0.11119375228881836
aF0.1830526351928711
asg16
F2
sg17
I10
sg18
I8000
sg19
(F0.1830526351928711
F0.18316078186035156
F0.00010814666748046876
tp182
sbsS'StringMappings'
p183
(iStrings
StringMappings
p184
(dp185
g8
I36
sg9
(lp186
F0.0039621472358703615
aF0.00015175342559814453
aF0.00015269517898559571
aF0.00014754533767700196
aF0.00015270709991455078
aF0.00015059709548950195
aF0.00014954805374145508
aF0.00015259981155395507
aF0.000150907039642334
aF0.0037556529045104981
aF0.00015149116516113281
aF0.0001508474349975586
aF0.00015205144882202148
aF0.00015050172805786133
aF0.00015325546264648436
aF0.00015305280685424806
aF0.00014904737472534179
aF0.003957998752593994
aF0.0001496434211730957
aF0.00015015602111816405
asg11
I20
sg12
g13
sg14
(lp187
F0.18963149785995484
aF0.18991235494613648
aF0.18893054723739625
aF0.11396936178207398
aF0.11349037885665894
aF0.18939045667648316
aF0.18960336446762086
aF0.11401132345199586
aF0.18967846632003785
aF0.11760548353195191
asg16
F2
sg17
I10
sg18
I7000
sg19
(F0.11760548353195191
F0.11775302886962891
F0.00014754533767700196
tp188
sbsS'TryFinally'
p189
(iWith
TryFinally
p190
(dp191
g8
I20
sg9
(lp192
F0.00011504888534545899
aF0.00011310577392578124
aF0.00011240243911743164
aF0.00011065006256103516
aF0.00011060237884521484
aF0.0037145972251892089
aF0.00011185407638549804
aF0.00011320114135742188
aF0.00011194944381713867
aF0.00011345148086547852
aF0.00011364221572875976
aF0.0001134037971496582
aF0.00011100769042968751
aF0.00011029243469238282
aF0.00011100769042968751
aF0.00011174678802490234
aF0.0039155006408691405
aF0.00011124610900878907
aF0.00011310577392578124
aF0.00011060237884521484
asg11
I20
sg12
g13
sg14
(lp193
F0.19378266334533692
aF0.19366464614868165
aF0.19330964088439942
aF0.19404754638671876
aF0.19619188308715821
aF0.19402060508728028
aF0.19318566322326661
aF0.12155780792236329
aF0.19316682815551758
aF0.12118468284606934
asg16
F2
sg17
I10
sg18
I8000
sg19
(F0.12118468284606934
F0.12129497528076172
F0.00011029243469238282
tp194
sbsS'Recursion'
p195
(iCalls
Recursion
p196
(dp197
g8
I5
sg9
(lp198
F0.00013784170150756835
aF0.00013830661773681641
aF0.00014339685440063478
aF0.00013839006423950196
aF0.00013779401779174806
aF0.00014065504074096681
aF0.003942155838012695
aF0.00014344453811645507
aF0.00013895034790039061
aF0.00013929605484008789
aF0.00013760328292846679
aF0.00013735294342041016
aF0.00014145374298095702
aF0.00014120340347290039
aF0.00013995170593261719
aF0.00013744831085205078
aF0.0037420988082885742
aF0.00013810396194458008
aF0.00013744831085205078
aF0.00013794898986816407
asg11
I20
sg12
g13
sg14
(lp199
F0.2075347661972046
aF0.20800158977508545
aF0.20845863819122315
aF0.20837686061859131
aF0.28004286289215086
aF0.20838449001312256
aF0.21195766925811768
aF0.28392646312713621
aF0.2077796220779419
aF0.20839450359344483
asg16
F2
sg17
I10
sg18
I10000
sg19
(F0.20839450359344483
F0.20853185653686523
F0.00013735294342041016
tp200
sbsS'SimpleLongArithmetic'
p201
(iArithmetic
SimpleLongArithmetic
p202
(dp203
g8
I110
sg9
(lp204
F8.2647800445556635e-05
aF8.2445144653320315e-05
aF8.2898139953613279e-05
aF8.2445144653320315e-05
aF8.2755088806152349e-05
aF8.2457065582275396e-05
aF8.2647800445556635e-05
aF8.2445144653320315e-05
aF8.2504749298095706e-05
aF8.2707405090332026e-05
aF8.2349777221679682e-05
aF0.0038861513137817385
aF8.2302093505859372e-05
aF8.2397460937500005e-05
aF8.3243846893310541e-05
aF8.2850456237792969e-05
aF8.2945823669433588e-05
aF8.2504749298095706e-05
aF8.2850456237792969e-05
aF8.2600116729736325e-05
asg11
I20
sg12
g13
sg14
(lp205
F0.17951769828796388
aF0.10735578536987304
aF0.10746164321899414
aF0.10731167793273926
aF0.10324258804321289
aF0.17925281524658204
aF0.10722084045410156
aF0.1073185920715332
aF0.17931861877441407
aF0.10719151496887207
asg16
F2
sg17
I10
sg18
I6000
sg19
(F0.10719151496887207
F0.10727381706237793
F8.2302093505859372e-05
tp206
sbsS'SimpleDictManipulation'
p207
(iDict
SimpleDictManipulation
p208
(dp209
g8
I120
sg9
(lp210
F0.00013779401779174806
aF0.0037433981895446779
aF0.00013780593872070312
aF0.00014560222625732423
aF0.00013844966888427735
aF0.00013934373855590821
aF0.00013875961303710938
aF0.00013729333877563477
aF0.00014194250106811524
aF0.00013885498046874999
aF0.0039408564567565921
aF0.00013805627822875975
aF0.00013719797134399415
aF0.00013750791549682617
aF0.00013865232467651366
aF0.00013715028762817383
aF0.0001375436782836914
aF0.00013769865036010741
aF0.00013729333877563477
aF0.0001374959945678711
asg11
I20
sg12
g13
sg14
(lp211
F0.11336392164230347
aF0.10916084051132202
aF0.10918372869491577
aF0.10925072431564331
aF0.11338275671005249
aF0.18947690725326538
aF0.18530195951461792
aF0.18517869710922241
aF0.18499773740768433
aF0.11377972364425659
asg16
F2
sg17
I10
sg18
I10000
sg19
(F0.11377972364425659
F0.11391687393188477
F0.00013715028762817383
tp212
sbsS'WithRaiseExcept'
p213
(iWith
WithRaiseExcept
p214
(dp215
g8
I8
sg9
(lp216
F0.00014064311981201171
aF0.00014050006866455077
aF0.0001423954963684082
aF0.00013759136199951172
aF0.0001381516456604004
aF0.00013804435729980469
aF0.00013844966888427735
aF0.0037413001060485839
aF0.0001398921012878418
aF0.00014045238494873047
aF0.00014255046844482421
aF0.000141143798828125
aF0.00013905763626098633
aF0.00013779401779174806
aF0.0001381993293762207
aF0.0039421439170837401
aF0.00014189481735229492
aF0.00014355182647705079
aF0.00014320611953735351
aF0.00014089345932006837
asg11
I20
sg12
g13
sg14
(lp217
F0.30618855953216551
aF0.30551741123199461
aF0.30853435993194578
aF0.30932447910308836
aF0.30955836772918699
aF0.30582234859466551
aF0.30528948307037351
aF0.38553926944732664
aF0.30931351184844968
aF0.38160750865936277
asg16
F2
sg17
I10
sg18
I10000
sg19
(F0.38160750865936277
F0.3817451000213623
F0.00013759136199951172
tp218
sbsS'UnicodeProperties'
p219
(iUnicode
UnicodeProperties
p220
(dp221
g8
I40
sg9
(lp222
F0.00071629285812377928
aF0.0043194532394409176
aF0.00072714090347290037
aF0.0045206069946289061
aF0.00071370601654052734
aF0.0043184041976928713
aF0.00071045160293579099
aF0.00451200008392334
aF0.00070610046386718748
aF0.0043184041976928713
aF0.0045174002647399899
aF0.00071175098419189457
aF0.0045120477676391605
aF0.00070894956588745122
aF0.0043192505836486816
aF0.00070949792861938474
aF0.0045154452323913578
aF0.004317951202392578
aF0.00071070194244384768
aF0.0045207500457763675
asg11
I20
sg12
g13
sg14
(lp223
F0.19949779510498047
aF0.19743380546569825
aF0.12086877822875977
aF0.19758710861206055
aF0.19749293327331544
aF0.19774994850158692
aF0.19685897827148438
aF0.19760689735412598
aF0.19699392318725586
aF0.19760689735412598
asg16
F2
sg17
I10
sg18
I10000
sg19
(F0.19760689735412598
F0.19831299781799316
F0.00070610046386718748
tp224
sbsS'SimpleIntFloatArithmetic'
p225
(iArithmetic
SimpleIntFloatArithmetic
p226
(dp227
g8
I110
sg9
(lp228
F0.00016629695892333984
aF0.00017110109329223632
aF0.0039683461189270021
aF0.00016539096832275392
aF0.00017039775848388673
aF0.00017344951629638672
aF0.00017005205154418945
aF0.00016649961471557618
aF0.00017014741897583007
aF0.00016814470291137695
aF0.00016505718231201171
aF0.0037685513496398928
aF0.00016729831695556642
aF0.0001654982566833496
aF0.00016554594039916993
aF0.00016674995422363281
aF0.00016584396362304688
aF0.00016739368438720704
aF0.0039719939231872559
aF0.00017029047012329102
asg11
I20
sg12
g13
sg14
(lp229
F0.10581605434417725
aF0.10941092967987061
aF0.18175499439239501
aF0.10552995204925537
aF0.18179600238800048
aF0.10948698520660401
aF0.10951988697052002
aF0.18160407543182372
aF0.1056858777999878
aF0.18165509700775145
asg16
F2
sg17
I10
sg18
I12000
sg19
(F0.18165509700775145
F0.18182015419006348
F0.00016505718231201171
tp230
sbsS'CreateUnicodeWithConcat'
p231
(iUnicode
CreateUnicodeWithConcat
p232
(dp233
g8
I50
sg9
(lp234
F0.00011219978332519532
aF0.00011320114135742188
aF0.00011639595031738281
aF0.00010864734649658203
aF0.0001131892204284668
aF0.00010859966278076172
aF0.00011425018310546875
aF0.00011144876480102539
aF0.0039134979248046878
aF0.00011005401611328126
aF0.0001108407974243164
aF0.00011205673217773438
aF0.0001134037971496582
aF0.00011035203933715821
aF0.00011215209960937499
aF0.00011289119720458984
aF0.00011100769042968751
aF0.00011335611343383789
aF0.00011219978332519532
aF0.00010989904403686523
asg11
I20
sg12
g13
sg14
(lp235
F0.11658346652984619
aF0.19063651561737061
aF0.19089734554290771
aF0.19066941738128662
aF0.19069540500640869
aF0.18980658054351807
aF0.11854231357574463
aF0.19018542766571045
aF0.19048035144805908
aF0.1906813383102417
asg16
F2
sg17
I10
sg18
I8000
sg19
(F0.1906813383102417
F0.19078993797302246
F0.00010859966278076172
tp236
sbsS'ListSlicing'
p237
(iLists
ListSlicing
p238
(dp239
g8
I175
sg9
(lp240
F3.0243396759033202e-05
aF2.9945373535156249e-05
aF2.9850006103515626e-05
aF2.9897689819335939e-05
aF3.0052661895751952e-05
aF3.0004978179931639e-05
aF3.0553340911865236e-05
aF2.9897689819335939e-05
aF3.1149387359619142e-05
aF3.0994415283203125e-05
aF3.0553340911865236e-05
aF3.0148029327392579e-05
aF0.0036356091499328614
aF3.0303001403808592e-05
aF2.9802322387695312e-05
aF2.9897689819335939e-05
aF2.9897689819335939e-05
aF3.2198429107666018e-05
aF3.0553340911865236e-05
aF2.8753280639648436e-05
asg11
I20
sg12
g13
sg14
(lp241
F0.27787122726440427
aF0.21045026779174805
aF0.20941910743713379
aF0.20582137107849122
aF0.20549330711364747
aF0.20594415664672852
aF0.28218731880187986
aF0.2055753231048584
aF0.20978817939758301
aF0.20536623001098633
asg16
F2
sg17
I10
sg18
I80
sg19
(F0.20536623001098633
F0.20539498329162598
F2.8753280639648436e-05
tp242
sbsS'SimpleListComprehensions'
p243
(iLists
SimpleListComprehensions
p244
(dp245
g8
I6
sg9
(lp246
F2.8800964355468749e-05
aF2.8002262115478516e-05
aF2.8145313262939452e-05
aF2.8049945831298829e-05
aF2.8848648071289062e-05
aF2.8002262115478516e-05
aF2.8002262115478516e-05
aF2.8204917907714843e-05
aF2.8002262115478516e-05
aF2.8097629547119139e-05
aF2.8002262115478516e-05
aF2.8395652770996092e-05
aF2.8097629547119139e-05
aF2.8002262115478516e-05
aF2.8097629547119139e-05
aF2.8002262115478516e-05
aF2.8002262115478516e-05
aF2.8097629547119139e-05
aF2.8300285339355469e-05
aF2.8204917907714843e-05
asg11
I20
sg12
g13
sg14
(lp247
F0.19106591939926149
aF0.19401110410690309
aF0.19005097150802613
aF0.18986595869064332
aF0.19084490537643434
aF0.11406697034835815
aF0.19032586812973024
aF0.19504512548446656
aF0.11310995817184448
aF0.18901218175888063
asg16
F2
sg17
I10
sg18
I2000
sg19
(F0.18901218175888063
F0.18904018402099609
F2.8002262115478516e-05
tp248
sbsS'CompareLongs'
p249
(iNumbers
CompareLongs
p250
(dp251
g8
I150
sg9
(lp252
F0.00010139942169189453
aF9.9802017211914068e-05
aF0.00010150671005249023
aF0.0002229452133178711
aF9.7203254699707029e-05
aF9.9003314971923828e-05
aF9.8252296447753912e-05
aF9.9503993988037115e-05
aF9.9992752075195307e-05
aF0.00010274648666381836
aF9.9897384643554688e-05
aF0.0037049055099487305
aF0.00010164976119995118
aF0.00010114908218383789
aF9.9003314971923828e-05
aF0.00010215044021606445
aF9.8097324371337888e-05
aF9.9802017211914068e-05
aF0.00010099411010742188
aF9.8097324371337888e-05
asg11
I20
sg12
g13
sg14
(lp253
F0.18530185222625734
aF0.11336786746978759
aF0.11321885585784912
aF0.18528468608856202
aF0.10945589542388916
aF0.18541080951690675
aF0.11342294216156006
aF0.18530089855194093
aF0.18517668247222902
aF0.18533475399017335
asg16
F2
sg17
I10
sg18
I7000
sg19
(F0.18533475399017335
F0.18543195724487305
F9.7203254699707029e-05
tp254
sbsS'SimpleIntegerArithmetic'
p255
(iArithmetic
SimpleIntegerArithmetic
p256
(dp257
g8
I110
sg9
(lp258
F0.00017924308776855468
aF0.00017724037170410156
aF0.00017710924148559571
aF0.00017704963684082032
aF0.00017709732055664061
aF0.0039766430854797363
aF0.00017970800399780273
aF0.00018099546432495117
aF0.00018260478973388671
aF0.00017839670181274414
aF0.00017720460891723633
aF0.00017789602279663085
aF0.00018264055252075194
aF0.0037820935249328613
aF0.00018324851989746094
aF0.00017834901809692382
aF0.00018190145492553712
aF0.00018190145492553712
aF0.00017880201339721681
aF0.0039796948432922362
asg11
I20
sg12
g13
sg14
(lp259
F0.10946688652038575
aF0.10525784492492676
aF0.10917291641235352
aF0.10923609733581544
aF0.10535798072814942
aF0.18129286766052247
aF0.10541901588439942
aF0.10521683692932129
aF0.18519887924194336
aF0.10918793678283692
asg16
F2
sg17
I10
sg18
I12000
sg19
(F0.10918793678283692
F0.10936498641967773
F0.00017704963684082032
tp260
sbsS'SpecialClassAttribute'
p261
(iLookups
SpecialClassAttribute
p262
(dp263
g8
I120
sg9
(lp264
F0.00015414953231811522
aF0.00015395879745483398
aF0.00015414953231811522
aF0.00015410184860229493
aF0.00015389919281005859
aF0.00015519857406616212
aF0.0039589047431945797
aF0.00015424489974975587
aF0.0001540541648864746
aF0.0001540541648864746
aF0.00015679597854614257
aF0.00015554428100585937
aF0.00015720129013061524
aF0.00015399456024169921
aF0.00015400648117065431
aF0.0037618517875671388
aF0.00015685558319091796
aF0.00015714168548583985
aF0.00015749931335449219
aF0.00015754699707031249
asg11
I20
sg12
g13
sg14
(lp265
F0.193290114402771
aF0.11342298984527588
aF0.11774623394012451
aF0.18952906131744385
aF0.19242608547210693
aF0.18946516513824463
aF0.11320197582244873
aF0.18969404697418213
aF0.11729800701141357
aF0.19142496585845947
asg16
F2
sg17
I10
sg18
I10000
sg19
(F0.19142496585845947
F0.19157886505126953
F0.00015389919281005859
tp266
sbsS'SecondImport'
p267
(iImports
SecondImport
p268
(dp269
g8
I25
sg9
(lp270
F5.5098533630371092e-05
aF5.5456161499023436e-05
aF5.5050849914550783e-05
aF5.5956840515136716e-05
aF5.425214767456055e-05
aF5.7351589202880862e-05
aF5.8603286743164065e-05
aF5.5193901062011719e-05
aF5.3751468658447263e-05
aF5.4454803466796876e-05
aF5.7756900787353516e-05
aF5.6648254394531249e-05
aF0.003861403465270996
aF5.6397914886474612e-05
aF5.7053565979003909e-05
aF5.4955482482910156e-05
aF5.5801868438720706e-05
aF5.4657459259033203e-05
aF5.6350231170654296e-05
aF5.9700012207031251e-05
asg11
I20
sg12
g13
sg14
(lp271
F0.20302332639694215
aF0.20349539518356324
aF0.20358313322067262
aF0.20391215085983277
aF0.20717729330062867
aF0.2074862837791443
aF0.20517314672470094
aF0.20328224897384645
aF0.27967323064804078
aF0.28198422193527223
asg16
F2
sg17
I10
sg18
I4000
sg19
(F0.28198422193527223
F0.28203797340393066
F5.3751468658447263e-05
tp272
sbsS'WithFinally'
p273
(iWith
WithFinally
p274
(dp275
g8
I20
sg9
(lp276
F0.00011254549026489258
aF0.00011020898818969727
aF0.00011074542999267578
aF0.00011030435562133789
aF0.00011010169982910157
aF0.0039160490036010739
aF0.00011025667190551758
aF0.00011144876480102539
aF0.00011050701141357422
aF0.00011085271835327148
aF0.00011035203933715821
aF0.00011085271835327148
aF0.00011169910430908203
aF0.00011050701141357422
aF0.00011370182037353515
aF0.00011130571365356446
aF0.0039182543754577633
aF0.00011054277420043945
aF0.00011214017868041993
aF0.00011254549026489258
asg11
I20
sg12
g13
sg14
(lp277
F0.20639591217041015
aF0.20671801567077636
aF0.28171591758728026
aF0.28206973075866698
aF0.28247599601745604
aF0.21070103645324706
aF0.20642094612121581
aF0.20627884864807128
aF0.27839283943176268
aF0.20631079673767089
asg16
F2
sg17
I10
sg18
I8000
sg19
(F0.20631079673767089
F0.2064208984375
F0.00011010169982910157
tp278
sbsS'TupleSlicing'
p279
(iTuples
TupleSlicing
p280
(dp281
g8
I5250
sg9
(lp282
F2.0599365234375001e-05
aF2.0492076873779298e-05
aF1.9598007202148438e-05
aF1.9550323486328125e-05
aF2.0742416381835938e-05
aF2.1004676818847655e-05
aF2.0301342010498048e-05
aF2.0396709442138671e-05
aF2.1445751190185548e-05
aF2.0003318786621095e-05
aF2.0205974578857422e-05
aF1.8644332885742188e-05
aF1.9550323486328125e-05
aF1.9741058349609374e-05
aF2.0241737365722658e-05
aF1.9598007202148438e-05
aF2.1541118621826171e-05
aF2.0790100097656251e-05
aF1.9550323486328125e-05
aF1.9550323486328125e-05
asg11
I20
sg12
g13
sg14
(lp283
F0.11535735130310058
aF0.11957044601440429
aF0.19140334129333497
aF0.19181628227233888
aF0.19354624748229982
aF0.19128937721252443
aF0.12102622985839843
aF0.19299144744873048
aF0.11566634178161621
aF0.19082922935485841
asg16
F2
sg17
I10
sg18
I50
sg19
(F0.19082922935485841
F0.19084787368774414
F1.8644332885742188e-05
tp284
sbsS'SimpleFloatArithmetic'
p285
(iArithmetic
SimpleFloatArithmetic
p286
(dp287
g8
I110
sg9
(lp288
F0.0037746071815490724
aF0.00016845464706420897
aF0.00017025470733642579
aF0.00016595125198364257
aF0.00016890764236450196
aF0.00016734600067138671
aF0.00016890764236450196
aF0.0039685964584350586
aF0.00017130374908447266
aF0.00017360448837280273
aF0.00016640424728393556
aF0.00016599893569946289
aF0.00016900300979614258
aF0.00016789436340332032
aF0.00016700029373168946
aF0.0037716507911682131
aF0.00016599893569946289
aF0.00016875267028808593
aF0.00016895532608032226
aF0.0001697540283203125
asg11
I20
sg12
g13
sg14
(lp289
F0.18127106428146361
aF0.18121622800827025
aF0.1094140887260437
aF0.18571709394454955
aF0.10911701917648316
aF0.10488914251327515
aF0.10547899007797241
aF0.10940812826156616
aF0.10891507863998413
aF0.10617111921310425
asg16
F2
sg17
I10
sg18
I12000
sg19
(F0.10617111921310425
F0.10633707046508789
F0.00016595125198364257
tp290
sbsS'StringPredicates'
p291
(iStrings
StringPredicates
p292
(dp293
g8
I70
sg9
(lp294
F0.00073059797286987303
aF0.0043249011039733888
aF0.00073094367980957036
aF0.0045246005058288572
aF0.0045274972915649416
aF0.00073274374008178709
aF0.0043358922004699705
aF0.0007283449172973633
aF0.0045331478118896488
aF0.00073139667510986324
aF0.0043344974517822267
aF0.0045408487319946291
aF0.00073680877685546877
aF0.0043230533599853517
aF0.00072100162506103513
aF0.0045233011245727536
aF0.00072585344314575191
aF0.0043336033821105959
aF0.0045349001884460449
aF0.00072025060653686519
asg11
I20
sg12
g13
sg14
(lp295
F0.19592477083206178
aF0.12002469301223755
aF0.11973572969436645
aF0.20024086236953736
aF0.19578768014907838
aF0.20011879205703736
aF0.19558788537979127
aF0.19630457162857057
aF0.1235888123512268
aF0.19566274881362916
asg16
F2
sg17
I10
sg18
I10000
sg19
(F0.19566274881362916
F0.19638299942016602
F0.00072025060653686519
tp296
sbsS'BuiltinMethodLookup'
p297
(iLookups
BuiltinMethodLookup
p298
(dp299
g8
I150
sg9
(lp300
F9.7048282623291018e-05
aF9.6356868743896479e-05
aF9.6952915191650385e-05
aF9.6249580383300779e-05
aF9.6702575683593755e-05
aF9.6297264099121088e-05
aF9.6607208251953122e-05
aF9.6547603607177732e-05
aF0.0039000511169433594
aF9.4294548034667969e-05
aF9.8395347595214841e-05
aF9.350776672363281e-05
aF9.7799301147460935e-05
aF9.9802017211914068e-05
aF9.9647045135498044e-05
aF9.6392631530761721e-05
aF9.7048282623291018e-05
aF9.5891952514648435e-05
aF9.9444389343261724e-05
aF9.260177612304687e-05
asg11
I20
sg12
g13
sg14
(lp301
F0.10908761024475097
aF0.18371644020080566
aF0.18425955772399902
aF0.10745730400085449
aF0.10791625976562499
aF0.10776534080505371
aF0.18383040428161621
aF0.18371453285217285
aF0.10775437355041503
aF0.11178054809570312
asg16
F2
sg17
I10
sg18
I7000
sg19
(F0.11178054809570312
F0.11187314987182617
F9.260177612304687e-05
tp302
sbsS'SimpleComplexArithmetic'
p303
(iArithmetic
SimpleComplexArithmetic
p304
(dp305
g8
I110
sg9
(lp306
F0.0001139998435974121
aF0.00011254549026489258
aF0.0001114964485168457
aF0.00011160373687744141
aF0.00011165142059326172
aF0.00011805295944213867
aF0.00011320114135742188
aF0.00011459589004516601
aF0.00011245012283325195
aF0.0039167523384094237
aF0.00010970830917358398
aF0.00011254549026489258
aF0.00011045932769775391
aF0.00011049509048461914
aF0.00010979175567626953
aF0.00010994672775268554
aF0.00011470317840576172
aF0.00011180639266967773
aF0.00010994672775268554
aF0.00011125802993774414
asg11
I20
sg12
g13
sg14
(lp307
F0.10899921655654907
aF0.18523236513137817
aF0.18492742776870727
aF0.18479129076004028
aF0.18477841615676879
aF0.10902234315872192
aF0.11273738145828247
aF0.10913130044937133
aF0.10899420976638793
aF0.18502446413040161
asg16
F2
sg17
I10
sg18
I8000
sg19
(F0.18502446413040161
F0.1851341724395752
F0.00010970830917358398
tp308
sbsS'ConcatUnicode'
p309
(iUnicode
ConcatUnicode
p310
(dp311
g8
I50
sg9
(lp312
F0.00012224912643432617
aF0.0001212000846862793
aF0.00012465715408325196
aF0.00012425184249877929
aF0.00012274980545043946
aF0.00012189149856567383
aF0.0001228928565979004
aF0.00012220144271850585
aF0.0037277936935424805
aF0.0001235485076904297
aF0.00012214183807373046
aF0.00012155771255493165
aF0.00012290477752685547
aF0.00012029409408569336
aF0.00011945962905883789
aF0.00012139081954956054
aF0.00012029409408569336
aF0.0039280414581298832
aF0.00012000799179077149
aF0.00012049674987792968
asg11
I20
sg12
g13
sg14
(lp313
F0.27636741399765014
aF0.28167842626571654
aF0.28131245374679564
aF0.20476649999618529
aF0.2786664843559265
aF0.20458172559738158
aF0.20396350622177123
aF0.20837758779525756
aF0.20476864576339721
aF0.20549248456954955
asg16
F2
sg17
I10
sg18
I6000
sg19
(F0.20549248456954955
F0.2056119441986084
F0.00011945962905883789
tp314
sbsS'CompareInternedStrings'
p315
(iStrings
CompareInternedStrings
p316
(dp317
g8
I50
sg9
(lp318
F0.00042530298233032224
aF0.0040184020996093753
aF0.00042145252227783204
aF0.00042154788970947263
aF0.0042309999465942379
aF0.00042014122009277345
aF0.00041764974594116211
aF0.0040290951728820801
aF0.00042060613632202151
aF0.00042115449905395509
aF0.0042225956916809079
aF0.00041570663452148435
aF0.00042245388031005862
aF0.004221796989440918
aF0.0004242539405822754
aF0.00041410923004150393
aF0.0040218472480773922
aF0.00041545629501342772
aF0.00041525363922119142
aF0.0042209982872009281
asg11
I20
sg12
g13
sg14
(lp319
F0.10478689670562744
aF0.18067505359649658
aF0.18091800212860107
aF0.10499789714813232
aF0.1816709280014038
aF0.10502793788909912
aF0.10504987239837646
aF0.10886886119842529
aF0.10904195308685302
aF0.10877277851104736
asg16
F2
sg17
I10
sg18
I30000
sg19
(F0.10877277851104736
F0.10918688774108887
F0.00041410923004150393
tp320
sbsS'CompareStrings'
p321
(iStrings
CompareStrings
p322
(dp323
g8
I50
sg9
(lp324
F0.00028815269470214842
aF0.0038895010948181152
aF0.00028389692306518555
aF0.00028460025787353517
aF0.00028295516967773436
aF0.0002850532531738281
aF0.0040882587432861332
aF0.00027945041656494138
aF0.00028849840164184569
aF0.00028564929962158201
aF0.0038903951644897461
aF0.00028375387191772463
aF0.00028225183486938474
aF0.00028115510940551758
aF0.00027979612350463866
aF0.0040910959243774412
aF0.00027935504913330079
aF0.0002844572067260742
aF0.00028045177459716796
aF0.00028574466705322266
asg11
I20
sg12
g13
sg14
(lp325
F0.1163745641708374
aF0.18846566677093507
aF0.18917543888092042
aF0.11631686687469482
aF0.1168318510055542
aF0.11673743724822998
aF0.18864376544952394
aF0.18872864246368409
aF0.11700875759124756
aF0.18849356174468995
asg16
F2
sg17
I10
sg18
I20000
sg19
(F0.18849356174468995
F0.18877291679382324
F0.00027935504913330079
tp326
sbsS'SmallTuples'
p327
(iTuples
SmallTuples
p328
(dp329
g8
I60
sg9
(lp330
F0.00012470483779907225
aF0.00012379884719848633
aF0.00012525320053100586
aF0.00012536048889160155
aF0.00012619495391845702
aF0.00012494325637817382
aF0.00012431144714355468
aF0.0001248002052307129
aF0.0037285089492797852
aF0.00012460947036743164
aF0.00012699365615844726
aF0.00012469291687011719
aF0.00012415647506713867
aF0.00012555122375488282
aF0.00012390613555908204
aF0.00012555122375488282
aF0.00012714862823486327
aF0.00012409687042236328
aF0.0039283990859985355
aF0.00012449026107788085
asg11
I20
sg12
g13
sg14
(lp331
F0.19090718030929565
aF0.19098728895187378
aF0.19085234403610229
aF0.11859625577926636
aF0.11435812711715698
aF0.19110912084579468
aF0.19084733724594116
aF0.11508315801620483
aF0.18925207853317261
aF0.11709827184677124
asg16
F2
sg17
I10
sg18
I9000
sg19
(F0.11709827184677124
F0.11722207069396973
F0.00012379884719848633
tp332
sbsS'NormalClassAttribute'
p333
(iLookups
NormalClassAttribute
p334
(dp335
g8
I120
sg9
(lp336
F0.00014330148696899413
aF0.003948497772216797
aF0.00014400482177734375
aF0.00014060735702514648
aF0.00014319419860839844
aF0.00014154911041259767
aF0.00014175176620483397
aF0.00013890266418457032
aF0.00013929605484008789
aF0.00013929605484008789
aF0.0001437067985534668
aF0.003745245933532715
aF0.00013995170593261719
aF0.00014140605926513672
aF0.00014120340347290039
aF0.00014249086380004882
aF0.00014230012893676758
aF0.00013890266418457032
aF0.00013920068740844727
aF0.0039489030838012699
asg11
I20
sg12
g13
sg14
(lp337
F0.18966207504272461
aF0.1135190486907959
aF0.11347422599792481
aF0.11734995841979981
aF0.11728606224060059
aF0.19365606307983399
aF0.18930325508117676
aF0.11313114166259766
aF0.18951401710510254
aF0.19598517417907715
asg16
F2
sg17
I10
sg18
I10000
sg19
(F0.19598517417907715
F0.19612407684326172
F0.00013890266418457032
tp338
sbsS'CreateInstances'
p339
(iInstances
CreateInstances
p340
(dp341
g8
I14
sg9
(lp342
F0.00011475086212158203
aF0.00011335611343383789
aF0.00011279582977294922
aF0.00011320114135742188
aF0.00011360645294189453
aF0.00011229515075683594
aF0.00011314153671264649
aF0.00011545419692993164
aF0.00011374950408935547
aF0.0037202000617980956
aF0.00011224746704101563
aF0.00011565685272216797
aF0.00011644363403320312
aF0.00011405944824218749
aF0.00011749267578125
aF0.00011390447616577148
aF0.00011150836944580078
aF0.00011299848556518554
aF0.00011675357818603515
aF0.00011305809020996093
asg11
I20
sg12
g13
sg14
(lp343
F0.20553262233734132
aF0.20408136844635011
aF0.20399768352508546
aF0.20491154193878175
aF0.20449550151824952
aF0.20405657291412355
aF0.20410640239715577
aF0.27589638233184816
aF0.20453937053680421
aF0.20470054149627687
asg16
F2
sg17
I10
sg18
I8000
sg19
(F0.20470054149627687
F0.20481204986572266
F0.00011150836944580078
tp344
sbsS'DictWithStringKeys'
p345
(iDict
DictWithStringKeys
p346
(dp347
g8
I60
sg9
(lp348
F0.00030264854431152346
aF0.00030305385589599607
aF0.0041072010993957516
aF0.00030345916748046874
aF0.00030269622802734373
aF0.00030319690704345704
aF0.0003030061721801758
aF0.0039095520973205563
aF0.00030555725097656248
aF0.00030440092086791992
aF0.004105496406555176
aF0.0003054022789001465
aF0.00030934810638427734
aF0.00030505657196044922
aF0.0041061997413635257
aF0.00030285120010375977
aF0.00030879974365234376
aF0.00030289888381958009
aF0.00030544996261596682
aF0.0039080977439880371
asg11
I20
sg12
g13
sg14
(lp349
F0.10731735229492187
aF0.10374321937561035
aF0.10349621772766113
aF0.10752239227294921
aF0.10343923568725585
aF0.18343939781188964
aF0.10369434356689453
aF0.10342636108398437
aF0.1078864574432373
aF0.19951953887939453
asg16
F2
sg17
I10
sg18
I20000
sg19
(F0.19951953887939453
F0.19982218742370605
F0.00030264854431152346
tp350
sbsS'DictCreation'
p351
(iDict
DictCreation
p352
(dp353
g8
I50
sg9
(lp354
F0.00010989904403686523
aF0.0037141084671020509
aF0.00011595487594604493
aF0.00011134147644042969
aF0.00011260509490966797
aF0.00011014938354492188
aF0.00011165142059326172
aF0.00011010169982910157
aF0.00011019706726074218
aF0.00010989904403686523
aF0.00011019706726074218
aF0.00011059045791625977
aF0.0039162993431091312
aF0.00011295080184936523
aF0.00011239051818847656
aF0.00010985136032104492
aF0.0001095890998840332
aF0.00011014938354492188
aF0.0001097559928894043
aF0.00011079311370849609
asg11
I20
sg12
g13
sg14
(lp355
F0.18138846158981323
aF0.10926445722579955
aF0.10934027433395385
aF0.10946639776229858
aF0.10573633909225463
aF0.109225594997406
aF0.18110235929489135
aF0.1089363932609558
aF0.10973342657089233
aF0.10601052045822143
asg16
F2
sg17
I10
sg18
I8000
sg19
(F0.10601052045822143
F0.10612010955810547
F0.0001095890998840332
tp356
sbsS'StringSlicing'
p357
(iStrings
StringSlicing
p358
(dp359
g8
I35
sg9
(lp360
F0.00023940801620483398
aF0.0040444493293762211
aF0.00023975372314453126
aF0.0002405524253845215
aF0.00024155378341674804
aF0.00023756027221679687
aF0.00024039745330810546
aF0.0038423418998718263
aF0.00023850202560424805
aF0.000238192081451416
aF0.00023895502090454102
aF0.00024474859237670897
aF0.0040473461151123045
aF0.00023939609527587891
aF0.00023870468139648439
aF0.00023895502090454102
aF0.00023919343948364258
aF0.00024060010910034179
aF0.0038438081741333009
aF0.00023964643478393554
asg11
I20
sg12
g13
sg14
(lp361
F0.11300339698791503
aF0.18503346443176269
aF0.18855752944946289
aF0.18491735458374023
aF0.18917646408081054
aF0.10883345603942871
aF0.10693540573120117
aF0.11269750595092773
aF0.18475737571716308
aF0.18486347198486328
asg16
F2
sg17
I10
sg18
I16000
sg19
(F0.18486347198486328
F0.18510103225708008
F0.00023756027221679687
tp362
sbssS'name'
p363
S'results/with_t2.micro_1.pybench'
p364
sg11
I20
sg17
I10
sS'machine_details'
p365
(dp366
S'platform'
p367
S'Linux-3.13.0-92-generic-x86_64-with'
p368
sS'executable'
p369
S'/usr/local/bin/python'
p370
sS'builddate'
p371
S'Jul 19 2016 20:13:40'
p372
sS'unicode'
p373
S'UCS4'
p374
sS'implementation'
p375
S'CPython'
p376
sS'compiler'
p377
S'GCC 5.3.0'
p378
sS'bits'
p379
S'64bit'
p380
sS'processor'
p381
S''
sS'buildno'
p382
S'default'
p383
sS'python'
p384
S'2.7.12'
p385
ssg12
g13
sg16
F2
sS'roundtimes'
p386
(lp387
F10.295226824283597
aF10.28457952737808
aF10.282102835178373
aF10.292934191226957
aF10.283111345767972
aF10.201106560230253
aF10.278349888324735
aF10.283304464817045
aF10.193299305438993
aF10.37736607789993
asg18
I10
sS'verbose'
p388
I0
sb.